 LinkerDemo

 Timestamp is 3ab7b776 (Tue Mar 20 12:03:02 2001)

 Preferred load address is 10000000

 Start         Length     Name                   Class
 0001:00000000 0006ebe6H .text                   CODE
 0001:0006ebf0 00001e8cH .text$x                 CODE
 0002:00000000 0000021cH .idata$5                DATA
 0002:00000220 00004e40H .rdata                  DATA
 0002:00005060 00001c7cH .xdata$x                DATA
 0002:00006cdc 0000008cH .idata$2                DATA
 0002:00006d68 00000014H .idata$3                DATA
 0002:00006d7c 0000021cH .idata$4                DATA
 0002:00006f98 00000edaH .idata$6                DATA
 0002:00007e80 00000066H .edata                  DATA
 0003:00000000 00000004H .CRT$XCA                DATA
 0003:00000004 00000038H .CRT$XCU                DATA
 0003:0000003c 00000004H .CRT$XCZ                DATA
 0003:00000040 00000004H .CRT$XIA                DATA
 0003:00000044 00000004H .CRT$XIZ                DATA
 0003:00000050 000041d0H .data                   DATA
 0003:00004220 00000cccH .bss                    DATA

  Address         Publics by Value              Rva+Base     Lib:Object

 0001:00000000       ?Trigger@EBTriggerProperty@@UAEXPAVEBPropertySet@@@Z 10001000 f   eb_property.obj
 0001:00000010       ?WriteValue@EBProperty@@UAEXPAVEBPropertySet@@ABVEBValue@@@Z 10001010 f   eb_property.obj
 0001:00000050       ?ReadValue@EBProperty@@UAE?AVEBValue@@PAVEBPropertySet@@@Z 10001050 f   eb_property.obj
 0001:00000160       ??1?$EBStr@D@@UAE@XZ       10001160 f i eb_property.obj
 0001:00000190       ??4?$EBStr@D@@UAEABV0@PBD@Z 10001190 f i eb_property.obj
 0001:000001d0       ??4?$EBStr@D@@UAEABV0@ABV0@@Z 100011d0 f i eb_property.obj
 0001:00000210       ??4?$EBStr@D@@UAEABV0@ABV?$basic_string@DU?$char_traits@D@std@@V?$allocator@D@2@@std@@@Z 10001210 f i eb_property.obj
 0001:00000250       ??H?$EBStr@D@@UAEABV0@PBD@Z 10001250 f i eb_property.obj
 0001:00000290       ??H?$EBStr@D@@UAEABV0@ABV0@@Z 10001290 f i eb_property.obj
 0001:000002e0       ??H?$EBStr@D@@UAEABV0@ABV?$basic_string@DU?$char_traits@D@std@@V?$allocator@D@2@@std@@@Z 100012e0 f i eb_property.obj
 0001:00000320       ??Y?$EBStr@D@@UAEABV0@PBD@Z 10001320 f i eb_property.obj
 0001:00000330       ??Y?$EBStr@D@@UAEABV0@ABV0@@Z 10001330 f i eb_property.obj
 0001:00000340       ??Y?$EBStr@D@@UAEABV0@ABV?$basic_string@DU?$char_traits@D@std@@V?$allocator@D@2@@std@@@Z 10001340 f i eb_property.obj
 0001:00000350       ??B?$EBStr@D@@UBE?BV?$basic_string@DU?$char_traits@D@std@@V?$allocator@D@2@@std@@XZ 10001350 f i eb_property.obj
 0001:00000420       ??B?$EBStr@D@@UBE?AV?$basic_string@DU?$char_traits@D@std@@V?$allocator@D@2@@std@@XZ 10001420 f i eb_property.obj
 0001:000004f0       ??B?$EBStr@D@@UBEPBDXZ     100014f0 f i eb_property.obj
 0001:00000500       ??8?$EBStr@D@@UBE_NABV0@@Z 10001500 f i eb_property.obj
 0001:00000550       ??M?$EBStr@D@@UBE_NABV0@@Z 10001550 f i eb_property.obj
 0001:000005a0       ?c_str@?$EBStr@D@@UBEPBDXZ 100015a0 f i eb_property.obj
 0001:000005b0       ?clear@?$EBStr@D@@UAEXXZ   100015b0 f i eb_property.obj
 0001:000005e0       ?empty@?$EBStr@D@@UBE_NXZ  100015e0 f i eb_property.obj
 0001:000005f0       ?length@?$EBStr@D@@UBEKXZ  100015f0 f i eb_property.obj
 0001:00000600       ?compare@?$EBStr@D@@UBEHABV1@@Z 10001600 f i eb_property.obj
 0001:00000630       ?StringLength@?$EBStr@D@@EBEKPBD@Z 10001630 f i eb_property.obj
 0001:00000650       ?CopyString@?$EBStr@D@@EAEXPAXPBXK@Z 10001650 f i eb_property.obj
 0001:00000680       ?AllocString@?$EBStr@D@@EAE_NK@Z 10001680 f i eb_property.obj
 0001:000006c0       ?ReAllocString@?$EBStr@D@@EAE_NK@Z 100016c0 f i eb_property.obj
 0001:00000710       ??_G?$EBStr@D@@UAEPAXI@Z   10001710 f i eb_property.obj
 0001:00000710       ??_E?$EBStr@D@@UAEPAXI@Z   10001710 f i eb_property.obj
 0001:00000760       ??1EBValue@@UAE@XZ         10001760 f i eb_property.obj
 0001:000007a0       ?IsKindOf@EBValue@@UBE_NW4tagEBPropertyType@@@Z 100017a0 f i eb_property.obj
 0001:000007b0       ??4EBValue@@UAEABV0@ABV0@@Z 100017b0 f i eb_property.obj
 0001:00000810       ??4EBValue@@UAEABV0@_N@Z   10001810 f i eb_property.obj
 0001:00000820       ??4EBValue@@UAEABV0@K@Z    10001820 f i eb_property.obj
 0001:00000830       ??4EBValue@@UAEABV0@ABV?$EBStr@D@@@Z 10001830 f i eb_property.obj
 0001:00000850       ??8EBValue@@UAE_NABV0@@Z   10001850 f i eb_property.obj
 0001:000008b0       ??BEBValue@@UBE_NXZ        100018b0 f i eb_property.obj
 0001:000008c0       ??BEBValue@@UBEKXZ         100018c0 f i eb_property.obj
 0001:000008d0       ??BEBValue@@UAE?AV?$EBStr@D@@XZ 100018d0 f i eb_property.obj
 0001:00000930       ??BEBValue@@UBE?BV?$EBStr@D@@XZ 10001930 f i eb_property.obj
 0001:00000990       ??BEBValue@@UBEPBDXZ       10001990 f i eb_property.obj
 0001:000009a0       ?Write@EBValue@@UBEXPAX@Z  100019a0 f i eb_property.obj
 0001:000009e0       ?Read@EBValue@@UAEXPAX@Z   100019e0 f i eb_property.obj
 0001:00000a20       ??_EEBValue@@UAEPAXI@Z     10001a20 f i eb_property.obj
 0001:00000a20       ??_GEBValue@@UAEPAXI@Z     10001a20 f i eb_property.obj
 0001:00000ac0       ??_H@YGXPAXIHP6EX0@Z@Z     10001ac0 f i lightobjects.obj
 0001:00000b20       ?FreeLightObjects@CShaderLinkerDemo@@AAEXXZ 10001b20 f   lightobjects.obj
 0001:00000ba0       ?RandPlusMinusPI@@YAMXZ    10001ba0 f   lightobjects.obj
 0001:00000bd0       ?RandPlusMinusOneNormalized@@YA?AUD3DXVECTOR3@@XZ 10001bd0 f   lightobjects.obj
 0001:00000c60       ?UpdateLights@CShaderLinkerDemo@@AAEJXZ 10001c60 f   lightobjects.obj
 0001:000013d0       ??0D3DXVECTOR3@@QAE@MMM@Z  100023d0 f i lightobjects.obj
 0001:000013f0       ??1CLight@@UAE@XZ          100023f0 f i lightobjects.obj
 0001:00001400       ??_GCLight@@UAEPAXI@Z      10002400 f i lightobjects.obj
 0001:00001400       ??_ECLight@@UAEPAXI@Z      10002400 f i lightobjects.obj
 0001:00001420       ?DrawLight@CShaderLinkerDemo@@AAEJAAVCLight@@@Z 10002420 f   lightobjects.obj
 0001:00001840       ??HD3DXVECTOR3@@QBE?AU0@ABU0@@Z 10002840 f i lightobjects.obj
 0001:00001870       ?DrawLightObjects@CShaderLinkerDemo@@AAEJXZ 10002870 f   lightobjects.obj
 0001:000018d0       ?LoadLightObjects@CShaderLinkerDemo@@AAEJXZ 100028d0 f   lightobjects.obj
 0001:00002530       ?FindTextureStageState@NVMaterialResource@nv_objects@@QAEPAVNVTextureStageState@2@KW4_D3DTEXTURESTAGESTATETYPE@@@Z 10003530 f i lightobjects.obj
 0001:00002590       ?FindRenderState@NVMaterialResource@nv_objects@@QAEPAVNVRenderState@2@W4_D3DRENDERSTATETYPE@@@Z 10003590 f i lightobjects.obj
 0001:000025f0       ?Transform@NVComplexMeshBounds@nv_objects@@UAEXPBUD3DXMATRIX@@@Z 100035f0 f i lightobjects.obj
 0001:00002850       ?insert@?$map@W4_D3DTEXTURESTAGESTATETYPE@@VNVTextureStageState@nv_objects@@U?$less@W4_D3DTEXTURESTAGESTATETYPE@@@std@@V?$allocator@VNVTextureStageState@nv_objects@@@5@@std@@QAE?AU?$pair@Viterator@?$_Tree@W4_D3DTEXTURESTAGESTATETYPE@@U?$pair@$$CBW4_D3DTEXTURESTAGESTATETYPE@@VNVTextureStageState@nv_objects@@@std@@U_Kfn@?$map@W4_D3DTEXTURESTAGESTATETYPE@@VNVTextureStageState@nv_objects@@U?$less@W4_D3DTEXTURESTAGESTATETYPE@@@std@@V?$allocator@VNVTextureStageState@nv_objects@@@5@@3@U?$less@W4_D3DTEXTURESTAGESTATETYPE@@@3@V?$allocator@VNVTextureStageState@nv_objects@@@3@@std@@_N@2@ABU?$pair@$$CBW4_D3DTEXTURESTAGESTATETYPE@@VNVTextureStageState@nv_objects@@@2@@Z 10003850 f i lightobjects.obj
 0001:00002940       ?find@?$map@W4_D3DTEXTURESTAGESTATETYPE@@VNVTextureStageState@nv_objects@@U?$less@W4_D3DTEXTURESTAGESTATETYPE@@@std@@V?$allocator@VNVTextureStageState@nv_objects@@@5@@std@@QAE?AViterator@?$_Tree@W4_D3DTEXTURESTAGESTATETYPE@@U?$pair@$$CBW4_D3DTEXTURESTAGESTATETYPE@@VNVTextureStageState@nv_objects@@@std@@U_Kfn@?$map@W4_D3DTEXTURESTAGESTATETYPE@@VNVTextureStageState@nv_objects@@U?$less@W4_D3DTEXTURESTAGESTATETYPE@@@std@@V?$allocator@VNVTextureStageState@nv_objects@@@5@@3@U?$less@W4_D3DTEXTURESTAGESTATETYPE@@@3@V?$allocator@VNVTextureStageState@nv_objects@@@3@@2@ABW4_D3DTEXTURESTAGESTATETYPE@@@Z 10003940 f i lightobjects.obj
 0001:000029b0       ?insert@?$map@W4_D3DRENDERSTATETYPE@@VNVRenderState@nv_objects@@U?$less@W4_D3DRENDERSTATETYPE@@@std@@V?$allocator@VNVRenderState@nv_objects@@@5@@std@@QAE?AU?$pair@Viterator@?$_Tree@W4_D3DRENDERSTATETYPE@@U?$pair@$$CBW4_D3DRENDERSTATETYPE@@VNVRenderState@nv_objects@@@std@@U_Kfn@?$map@W4_D3DRENDERSTATETYPE@@VNVRenderState@nv_objects@@U?$less@W4_D3DRENDERSTATETYPE@@@std@@V?$allocator@VNVRenderState@nv_objects@@@5@@3@U?$less@W4_D3DRENDERSTATETYPE@@@3@V?$allocator@VNVRenderState@nv_objects@@@3@@std@@_N@2@ABU?$pair@$$CBW4_D3DRENDERSTATETYPE@@VNVRenderState@nv_objects@@@2@@Z 100039b0 f i lightobjects.obj
 0001:00002aa0       ?find@?$map@W4_D3DRENDERSTATETYPE@@VNVRenderState@nv_objects@@U?$less@W4_D3DRENDERSTATETYPE@@@std@@V?$allocator@VNVRenderState@nv_objects@@@5@@std@@QAE?AViterator@?$_Tree@W4_D3DRENDERSTATETYPE@@U?$pair@$$CBW4_D3DRENDERSTATETYPE@@VNVRenderState@nv_objects@@@std@@U_Kfn@?$map@W4_D3DRENDERSTATETYPE@@VNVRenderState@nv_objects@@U?$less@W4_D3DRENDERSTATETYPE@@@std@@V?$allocator@VNVRenderState@nv_objects@@@5@@3@U?$less@W4_D3DRENDERSTATETYPE@@@3@V?$allocator@VNVRenderState@nv_objects@@@3@@2@ABW4_D3DRENDERSTATETYPE@@@Z 10003aa0 f i lightobjects.obj
 0001:00002b10       ??1?$vector@KV?$allocator@K@std@@@std@@QAE@XZ 10003b10 f i lightobjects.obj
 0001:00002b40       ?find@?$_Tree@KU?$pair@$$CBKPAVNVBaseResource@nv_objects@@@std@@U_Kfn@?$map@KPAVNVBaseResource@nv_objects@@U?$less@K@std@@V?$allocator@PAVNVBaseResource@nv_objects@@@4@@2@U?$less@K@2@V?$allocator@PAVNVBaseResource@nv_objects@@@2@@std@@QAE?AViterator@12@ABK@Z 10003b40 f i lightobjects.obj
 0001:00002bb0       ?find@?$_Tree@$$CBV?$basic_string@DU?$char_traits@D@std@@V?$allocator@D@2@@std@@U?$pair@$$CBV?$basic_string@DU?$char_traits@D@std@@V?$allocator@D@2@@std@@VNVConstant@nv_objects@@@2@U_Kfn@?$map@$$CBV?$basic_string@DU?$char_traits@D@std@@V?$allocator@D@2@@std@@VNVConstant@nv_objects@@U?$less@$$CBV?$basic_string@DU?$char_traits@D@std@@V?$allocator@D@2@@std@@@2@V?$allocator@VNVConstant@nv_objects@@@2@@2@U?$less@$$CBV?$basic_string@DU?$char_traits@D@std@@V?$allocator@D@2@@std@@@2@V?$allocator@VNVConstant@nv_objects@@@2@@std@@QAE?AViterator@12@ABV?$basic_string@DU?$char_traits@D@std@@V?$allocator@D@2@@2@@Z 10003bb0 f i lightobjects.obj
 0001:00002c40       ?insert@?$_Tree@W4_D3DTEXTURESTAGESTATETYPE@@U?$pair@$$CBW4_D3DTEXTURESTAGESTATETYPE@@VNVTextureStageState@nv_objects@@@std@@U_Kfn@?$map@W4_D3DTEXTURESTAGESTATETYPE@@VNVTextureStageState@nv_objects@@U?$less@W4_D3DTEXTURESTAGESTATETYPE@@@std@@V?$allocator@VNVTextureStageState@nv_objects@@@5@@3@U?$less@W4_D3DTEXTURESTAGESTATETYPE@@@3@V?$allocator@VNVTextureStageState@nv_objects@@@3@@std@@QAE?AU?$pair@Viterator@?$_Tree@W4_D3DTEXTURESTAGESTATETYPE@@U?$pair@$$CBW4_D3DTEXTURESTAGESTATETYPE@@VNVTextureStageState@nv_objects@@@std@@U_Kfn@?$map@W4_D3DTEXTURESTAGESTATETYPE@@VNVTextureStageState@nv_objects@@U?$less@W4_D3DTEXTURESTAGESTATETYPE@@@std@@V?$allocator@VNVTextureStageState@nv_objects@@@5@@3@U?$less@W4_D3DTEXTURESTAGESTATETYPE@@@3@V?$allocator@VNVTextureStageState@nv_objects@@@3@@std@@_N@2@ABU?$pair@$$CBW4_D3DTEXTURESTAGESTATETYPE@@VNVTextureStageState@nv_objects@@@2@@Z 10003c40 f i lightobjects.obj
 0001:00002e80       ??0?$pair@Viterator@?$_Tree@W4_D3DTEXTURESTAGESTATETYPE@@U?$pair@$$CBW4_D3DTEXTURESTAGESTATETYPE@@VNVTextureStageState@nv_objects@@@std@@U_Kfn@?$map@W4_D3DTEXTURESTAGESTATETYPE@@VNVTextureStageState@nv_objects@@U?$less@W4_D3DTEXTURESTAGESTATETYPE@@@std@@V?$allocator@VNVTextureStageState@nv_objects@@@5@@3@U?$less@W4_D3DTEXTURESTAGESTATETYPE@@@3@V?$allocator@VNVTextureStageState@nv_objects@@@3@@std@@_N@std@@QAE@ABViterator@?$_Tree@W4_D3DTEXTURESTAGESTATETYPE@@U?$pair@$$CBW4_D3DTEXTURESTAGESTATETYPE@@VNVTextureStageState@nv_objects@@@std@@U_Kfn@?$map@W4_D3DTEXTURESTAGESTATETYPE@@VNVTextureStageState@nv_objects@@U?$less@W4_D3DTEXTURESTAGESTATETYPE@@@std@@V?$allocator@VNVTextureStageState@nv_objects@@@5@@3@U?$less@W4_D3DTEXTURESTAGESTATETYPE@@@3@V?$allocator@VNVTextureStageState@nv_objects@@@3@@1@AB_N@Z 10003e80 f i lightobjects.obj
 0001:00002ea0       ?insert@?$vector@KV?$allocator@K@std@@@std@@QAEPAKPAKABK@Z 10003ea0 f i lightobjects.obj
 0001:00003040       ?erase@?$vector@KV?$allocator@K@std@@@std@@QAEPAKPAK0@Z 10004040 f i lightobjects.obj
 0001:00003080       ?_Destroy@?$vector@KV?$allocator@K@std@@@std@@IAEXPAK0@Z 10004080 f i lightobjects.obj
 0001:00003090       ?insert@?$vector@VCLight@@V?$allocator@VCLight@@@std@@@std@@QAEPAVCLight@@PAV3@ABV3@@Z 10004090 f i lightobjects.obj
 0001:000032d0       ?size@?$vector@VCLight@@V?$allocator@VCLight@@@std@@@std@@QBEIXZ 100042d0 f i lightobjects.obj
 0001:00003300       ?erase@?$vector@VCLight@@V?$allocator@VCLight@@@std@@@std@@QAEPAVCLight@@PAV3@@Z 10004300 f i lightobjects.obj
 0001:000034f0       ?_Insert@?$_Tree@W4_D3DTEXTURESTAGESTATETYPE@@U?$pair@$$CBW4_D3DTEXTURESTAGESTATETYPE@@VNVTextureStageState@nv_objects@@@std@@U_Kfn@?$map@W4_D3DTEXTURESTAGESTATETYPE@@VNVTextureStageState@nv_objects@@U?$less@W4_D3DTEXTURESTAGESTATETYPE@@@std@@V?$allocator@VNVTextureStageState@nv_objects@@@5@@3@U?$less@W4_D3DTEXTURESTAGESTATETYPE@@@3@V?$allocator@VNVTextureStageState@nv_objects@@@3@@std@@IAE?AViterator@12@PAU_Node@12@0ABU?$pair@$$CBW4_D3DTEXTURESTAGESTATETYPE@@VNVTextureStageState@nv_objects@@@2@@Z 100044f0 f i lightobjects.obj
 0001:00003760       ?_Insert@?$_Tree@W4_D3DRENDERSTATETYPE@@U?$pair@$$CBW4_D3DRENDERSTATETYPE@@VNVRenderState@nv_objects@@@std@@U_Kfn@?$map@W4_D3DRENDERSTATETYPE@@VNVRenderState@nv_objects@@U?$less@W4_D3DRENDERSTATETYPE@@@std@@V?$allocator@VNVRenderState@nv_objects@@@5@@3@U?$less@W4_D3DRENDERSTATETYPE@@@3@V?$allocator@VNVRenderState@nv_objects@@@3@@std@@IAE?AViterator@12@PAU_Node@12@0ABU?$pair@$$CBW4_D3DRENDERSTATETYPE@@VNVRenderState@nv_objects@@@2@@Z 10004760 f i lightobjects.obj
 0001:000039d0       ?insert@?$vector@KV?$allocator@K@std@@@std@@QAEXPAKIABK@Z 100049d0 f i lightobjects.obj
 0001:00003be0       ?insert@?$vector@VCLight@@V?$allocator@VCLight@@@std@@@std@@QAEXPAVCLight@@IABV3@@Z 10004be0 f i lightobjects.obj
 0001:000040a0       ?_Destroy@?$vector@VCLight@@V?$allocator@VCLight@@@std@@@std@@IAEXPAVCLight@@0@Z 100050a0 f i lightobjects.obj
 0001:000040d0       ?_Lbound@?$_Tree@W4_D3DTEXTURESTAGESTATETYPE@@U?$pair@$$CBW4_D3DTEXTURESTAGESTATETYPE@@VNVTextureStageState@nv_objects@@@std@@U_Kfn@?$map@W4_D3DTEXTURESTAGESTATETYPE@@VNVTextureStageState@nv_objects@@U?$less@W4_D3DTEXTURESTAGESTATETYPE@@@std@@V?$allocator@VNVTextureStageState@nv_objects@@@5@@3@U?$less@W4_D3DTEXTURESTAGESTATETYPE@@@3@V?$allocator@VNVTextureStageState@nv_objects@@@3@@std@@IBEPAU_Node@12@ABW4_D3DTEXTURESTAGESTATETYPE@@@Z 100050d0 f i lightobjects.obj
 0001:00004100       ?_Lrotate@?$_Tree@W4_D3DTEXTURESTAGESTATETYPE@@U?$pair@$$CBW4_D3DTEXTURESTAGESTATETYPE@@VNVTextureStageState@nv_objects@@@std@@U_Kfn@?$map@W4_D3DTEXTURESTAGESTATETYPE@@VNVTextureStageState@nv_objects@@U?$less@W4_D3DTEXTURESTAGESTATETYPE@@@std@@V?$allocator@VNVTextureStageState@nv_objects@@@5@@3@U?$less@W4_D3DTEXTURESTAGESTATETYPE@@@3@V?$allocator@VNVTextureStageState@nv_objects@@@3@@std@@IAEXPAU_Node@12@@Z 10005100 f i lightobjects.obj
 0001:00004160       ?_Rrotate@?$_Tree@W4_D3DTEXTURESTAGESTATETYPE@@U?$pair@$$CBW4_D3DTEXTURESTAGESTATETYPE@@VNVTextureStageState@nv_objects@@@std@@U_Kfn@?$map@W4_D3DTEXTURESTAGESTATETYPE@@VNVTextureStageState@nv_objects@@U?$less@W4_D3DTEXTURESTAGESTATETYPE@@@std@@V?$allocator@VNVTextureStageState@nv_objects@@@5@@3@U?$less@W4_D3DTEXTURESTAGESTATETYPE@@@3@V?$allocator@VNVTextureStageState@nv_objects@@@3@@std@@IAEXPAU_Node@12@@Z 10005160 f i lightobjects.obj
 0001:000041c0       ?_Buynode@?$_Tree@W4_D3DTEXTURESTAGESTATETYPE@@U?$pair@$$CBW4_D3DTEXTURESTAGESTATETYPE@@VNVTextureStageState@nv_objects@@@std@@U_Kfn@?$map@W4_D3DTEXTURESTAGESTATETYPE@@VNVTextureStageState@nv_objects@@U?$less@W4_D3DTEXTURESTAGESTATETYPE@@@std@@V?$allocator@VNVTextureStageState@nv_objects@@@5@@3@U?$less@W4_D3DTEXTURESTAGESTATETYPE@@@3@V?$allocator@VNVTextureStageState@nv_objects@@@3@@std@@IAEPAU_Node@12@PAU312@W4_Redbl@12@@Z 100051c0 f i lightobjects.obj
 0001:000041e0       ?_Dec@const_iterator@?$_Tree@W4_D3DTEXTURESTAGESTATETYPE@@U?$pair@$$CBW4_D3DTEXTURESTAGESTATETYPE@@VNVTextureStageState@nv_objects@@@std@@U_Kfn@?$map@W4_D3DTEXTURESTAGESTATETYPE@@VNVTextureStageState@nv_objects@@U?$less@W4_D3DTEXTURESTAGESTATETYPE@@@std@@V?$allocator@VNVTextureStageState@nv_objects@@@5@@3@U?$less@W4_D3DTEXTURESTAGESTATETYPE@@@3@V?$allocator@VNVTextureStageState@nv_objects@@@3@@std@@QAEXXZ 100051e0 f i lightobjects.obj
 0001:00004240       ?_Lbound@?$_Tree@W4_D3DRENDERSTATETYPE@@U?$pair@$$CBW4_D3DRENDERSTATETYPE@@VNVRenderState@nv_objects@@@std@@U_Kfn@?$map@W4_D3DRENDERSTATETYPE@@VNVRenderState@nv_objects@@U?$less@W4_D3DRENDERSTATETYPE@@@std@@V?$allocator@VNVRenderState@nv_objects@@@5@@3@U?$less@W4_D3DRENDERSTATETYPE@@@3@V?$allocator@VNVRenderState@nv_objects@@@3@@std@@IBEPAU_Node@12@ABW4_D3DRENDERSTATETYPE@@@Z 10005240 f i lightobjects.obj
 0001:00004270       ?_Dec@const_iterator@?$_Tree@W4_D3DRENDERSTATETYPE@@U?$pair@$$CBW4_D3DRENDERSTATETYPE@@VNVRenderState@nv_objects@@@std@@U_Kfn@?$map@W4_D3DRENDERSTATETYPE@@VNVRenderState@nv_objects@@U?$less@W4_D3DRENDERSTATETYPE@@@std@@V?$allocator@VNVRenderState@nv_objects@@@5@@3@U?$less@W4_D3DRENDERSTATETYPE@@@3@V?$allocator@VNVRenderState@nv_objects@@@3@@std@@QAEXXZ 10005270 f i lightobjects.obj
 0001:000042d0       ?size@?$vector@KV?$allocator@K@std@@@std@@QBEIXZ 100052d0 f i lightobjects.obj
 0001:000042f0       ?_Ucopy@?$vector@KV?$allocator@K@std@@@std@@IAEPAKPBK0PAK@Z 100052f0 f i lightobjects.obj
 0001:00004320       ?_Ufill@?$vector@KV?$allocator@K@std@@@std@@IAEXPAKIABK@Z 10005320 f i lightobjects.obj
 0001:00004350       ?_Ucopy@?$vector@VCLight@@V?$allocator@VCLight@@@std@@@std@@IAEPAVCLight@@PBV3@0PAV3@@Z 10005350 f i lightobjects.obj
 0001:00004390       ?_Ufill@?$vector@VCLight@@V?$allocator@VCLight@@@std@@@std@@IAEXPAVCLight@@IABV3@@Z 10005390 f i lightobjects.obj
 0001:000043c0       ?fill@std@@YAXPAVCLight@@0ABV2@@Z 100053c0 f i lightobjects.obj
 0001:00004550       ?copy_backward@std@@YAPAVCLight@@PAV2@00@Z 10005550 f i lightobjects.obj
 0001:000046f0       ?_Construct@std@@YAXPAKABK@Z 100056f0 f i lightobjects.obj
 0001:00004710       ?_Construct@std@@YAXPAU?$pair@$$CBW4_D3DTEXTURESTAGESTATETYPE@@VNVTextureStageState@nv_objects@@@1@ABU21@@Z 10005710 f i lightobjects.obj
 0001:00004730       ?_Construct@std@@YAXPAU?$pair@$$CBW4_D3DRENDERSTATETYPE@@VNVRenderState@nv_objects@@@1@ABU21@@Z 10005730 f i lightobjects.obj
 0001:00004750       ?_Construct@std@@YAXPAVCLight@@ABV2@@Z 10005750 f i lightobjects.obj
 0001:000048d0       ??4CLight@@QAEAAV0@ABV0@@Z 100058d0 f i lightobjects.obj
 0001:00004a40       ??0NVComplexMesh@nv_objects@@QAE@XZ 10005a40 f   nvcomplexmesh.obj
 0001:00004b60       ??_GNVComplexMesh@nv_objects@@UAEPAXI@Z 10005b60 f i nvcomplexmesh.obj
 0001:00004b60       ??_ENVComplexMesh@nv_objects@@UAEPAXI@Z 10005b60 f i nvcomplexmesh.obj
 0001:00004b80       ??1NVComplexMesh@nv_objects@@UAE@XZ 10005b80 f   nvcomplexmesh.obj
 0001:00004c80       ??1?$map@$$CBV?$basic_string@DU?$char_traits@D@std@@V?$allocator@D@2@@std@@VNVComplexMeshVertexData@nv_objects@@U?$less@$$CBV?$basic_string@DU?$char_traits@D@std@@V?$allocator@D@2@@std@@@2@V?$allocator@VNVComplexMeshVertexData@nv_objects@@@2@@std@@QAE@XZ 10005c80 f i nvcomplexmesh.obj
 0001:00004d80       ?Release@NVComplexMesh@nv_objects@@UAEXXZ 10005d80 f   nvcomplexmesh.obj
 0001:00004eb0       ?FlipNormals@NVComplexMesh@nv_objects@@UAE_NXZ 10005eb0 f   nvcomplexmesh.obj
 0001:00004fc0       ?GenerateNormals@NVComplexMesh@nv_objects@@UAE_NXZ 10005fc0 f   nvcomplexmesh.obj
 0001:000052a0       ?UnIndex@NVComplexMesh@nv_objects@@UAE_NXZ 100062a0 f   nvcomplexmesh.obj
 0001:00005650       ?GenerateBasis@NVComplexMesh@nv_objects@@UAE_NK@Z 10006650 f   nvcomplexmesh.obj
 0001:00006220       ?CreateFromXFile@NVComplexMesh@nv_objects@@UAE_NPAUIDirect3DDevice8@@PBD@Z 10007220 f   nvcomplexmesh.obj
 0001:00007820       ?CreateFromMFile@NVComplexMesh@nv_objects@@UAE_NPAUIDirect3DDevice8@@PBD@Z 10008820 f   nvcomplexmesh.obj
 0001:00008160       ??1?$map@KKU?$less@K@std@@V?$allocator@K@2@@std@@QAE@XZ 10009160 f i nvcomplexmesh.obj
 0001:00008250       ?CreateFromSphere@NVComplexMesh@nv_objects@@UAE_NMGGABUD3DXVECTOR3@@ABUD3DXVECTOR2@@@Z 10009250 f   nvcomplexmesh.obj
 0001:00008ef0       ?Render@NVComplexMesh@nv_objects@@UAE_NPAUIDirect3DDevice8@@@Z 10009ef0 f   nvcomplexmesh.obj
 0001:00008f30       ?Translate@NVComplexMesh@nv_objects@@UAE_NABUD3DXVECTOR3@@@Z 10009f30 f   nvcomplexmesh.obj
 0001:00009050       ?Scale@NVComplexMesh@nv_objects@@UAE_NM@Z 1000a050 f   nvcomplexmesh.obj
 0001:00009170       ?Transform@NVComplexMesh@nv_objects@@UAE_NABUD3DXMATRIX@@@Z 1000a170 f   nvcomplexmesh.obj
 0001:00009280       ?ComputeBounds@NVComplexMesh@nv_objects@@UAE_NAAVNVComplexMeshBounds@2@@Z 1000a280 f   nvcomplexmesh.obj
 0001:00009580       ?SetupFVFStream@NVComplexMesh@nv_objects@@UAE_NXZ 1000a580 f   nvcomplexmesh.obj
 0001:00009e80       ?PrepareDeviceObjects@NVComplexMesh@nv_objects@@UAE_NPAUIDirect3DDevice8@@@Z 1000ae80 f   nvcomplexmesh.obj
 0001:0000a230       ?AddVertexData@NVComplexMesh@nv_objects@@UAEPAVNVComplexMeshVertexData@2@ABV?$basic_string@DU?$char_traits@D@std@@V?$allocator@D@2@@std@@W4tageNVComplexMeshVertexDataType@2@K@Z 1000b230 f   nvcomplexmesh.obj
 0001:0000a500       ??1?$pair@$$CBV?$basic_string@DU?$char_traits@D@std@@V?$allocator@D@2@@std@@VNVComplexMeshVertexData@nv_objects@@@std@@QAE@XZ 1000b500 f i nvcomplexmesh.obj
 0001:0000a600       ?FindVertexData@NVComplexMesh@nv_objects@@UAEPAVNVComplexMeshVertexData@2@ABV?$basic_string@DU?$char_traits@D@std@@V?$allocator@D@2@@std@@@Z 1000b600 f   nvcomplexmesh.obj
 0001:0000a660       ?DuplicatePass@NVComplexMesh@nv_objects@@UAEPAVNVComplexMeshPass@2@KK@Z 1000b660 f   nvcomplexmesh.obj
 0001:0000aa00       ??0NVBaseResource@nv_objects@@QAE@ABV01@@Z 1000ba00 f i nvcomplexmesh.obj
 0001:0000aa20       ??0?$map@$$CBV?$basic_string@DU?$char_traits@D@std@@V?$allocator@D@2@@std@@VNVConstant@nv_objects@@U?$less@$$CBV?$basic_string@DU?$char_traits@D@std@@V?$allocator@D@2@@std@@@2@V?$allocator@VNVConstant@nv_objects@@@2@@std@@QAE@ABV01@@Z 1000ba20 f i nvcomplexmesh.obj
 0001:0000aba0       ??0?$map@W4_D3DTEXTURESTAGESTATETYPE@@VNVTextureStageState@nv_objects@@U?$less@W4_D3DTEXTURESTAGESTATETYPE@@@std@@V?$allocator@VNVTextureStageState@nv_objects@@@5@@std@@QAE@ABV01@@Z 1000bba0 f i nvcomplexmesh.obj
 0001:0000ad20       ??0?$map@W4_D3DRENDERSTATETYPE@@VNVRenderState@nv_objects@@U?$less@W4_D3DRENDERSTATETYPE@@@std@@V?$allocator@VNVRenderState@nv_objects@@@5@@std@@QAE@ABV01@@Z 1000bd20 f i nvcomplexmesh.obj
 0001:0000af20       ??A?$map@KPAVNVBaseResource@nv_objects@@U?$less@K@std@@V?$allocator@PAVNVBaseResource@nv_objects@@@4@@std@@QAEAAPAVNVBaseResource@nv_objects@@ABK@Z 1000bf20 f i nvcomplexmesh.obj
 0001:0000b040       ?insert@?$set@KU?$less@K@std@@V?$allocator@K@2@@std@@QAE?AU?$pair@Viterator@?$_Tree@KKU_Kfn@?$set@KU?$less@K@std@@V?$allocator@K@2@@std@@U?$less@K@3@V?$allocator@K@3@@std@@_N@2@ABK@Z 1000c040 f i nvcomplexmesh.obj
 0001:0000b130       ??0NVBaseResource@nv_objects@@QAE@W4NVBaseResourceType@01@@Z 1000c130 f i nvcomplexmesh.obj
 0001:0000b150       ??1NVBaseResource@nv_objects@@UAE@XZ 1000c150 f i nvcomplexmesh.obj
 0001:0000b160       ?IsLocked@NVBaseResource@nv_objects@@UBE_NXZ 1000c160 f i nvcomplexmesh.obj
 0001:0000b170       ??_GNVBaseResource@nv_objects@@UAEPAXI@Z 1000c170 f i nvcomplexmesh.obj
 0001:0000b170       ??_ENVBaseResource@nv_objects@@UAEPAXI@Z 1000c170 f i nvcomplexmesh.obj
 0001:0000b190       ??0?$map@$$CBV?$basic_string@DU?$char_traits@D@std@@V?$allocator@D@2@@std@@VNVConstant@nv_objects@@U?$less@$$CBV?$basic_string@DU?$char_traits@D@std@@V?$allocator@D@2@@std@@@2@V?$allocator@VNVConstant@nv_objects@@@2@@std@@QAE@ABU?$less@$$CBV?$basic_string@DU?$char_traits@D@std@@V?$allocator@D@2@@std@@@1@ABV?$allocator@VNVConstant@nv_objects@@@1@@Z 1000c190 f i nvcomplexmesh.obj
 0001:0000b240       ?insert@?$map@$$CBV?$basic_string@DU?$char_traits@D@std@@V?$allocator@D@2@@std@@VNVConstant@nv_objects@@U?$less@$$CBV?$basic_string@DU?$char_traits@D@std@@V?$allocator@D@2@@std@@@2@V?$allocator@VNVConstant@nv_objects@@@2@@std@@QAE?AU?$pair@Viterator@?$_Tree@$$CBV?$basic_string@DU?$char_traits@D@std@@V?$allocator@D@2@@std@@U?$pair@$$CBV?$basic_string@DU?$char_traits@D@std@@V?$allocator@D@2@@std@@VNVConstant@nv_objects@@@2@U_Kfn@?$map@$$CBV?$basic_string@DU?$char_traits@D@std@@V?$allocator@D@2@@std@@VNVConstant@nv_objects@@U?$less@$$CBV?$basic_string@DU?$char_traits@D@std@@V?$allocator@D@2@@std@@@2@V?$allocator@VNVConstant@nv_objects@@@2@@2@U?$less@$$CBV?$basic_string@DU?$char_traits@D@std@@V?$allocator@D@2@@std@@@2@V?$allocator@VNVConstant@nv_objects@@@2@@std@@_N@2@ABU?$pair@$$CBV?$basic_string@DU?$char_traits@D@std@@V?$allocator@D@2@@std@@VNVConstant@nv_objects@@@2@@Z 1000c240 f i nvcomplexmesh.obj
 0001:0000b340       ?find@?$map@$$CBV?$basic_string@DU?$char_traits@D@std@@V?$allocator@D@2@@std@@VNVConstant@nv_objects@@U?$less@$$CBV?$basic_string@DU?$char_traits@D@std@@V?$allocator@D@2@@std@@@2@V?$allocator@VNVConstant@nv_objects@@@2@@std@@QAE?AViterator@?$_Tree@$$CBV?$basic_string@DU?$char_traits@D@std@@V?$allocator@D@2@@std@@U?$pair@$$CBV?$basic_string@DU?$char_traits@D@std@@V?$allocator@D@2@@std@@VNVConstant@nv_objects@@@2@U_Kfn@?$map@$$CBV?$basic_string@DU?$char_traits@D@std@@V?$allocator@D@2@@std@@VNVConstant@nv_objects@@U?$less@$$CBV?$basic_string@DU?$char_traits@D@std@@V?$allocator@D@2@@std@@@2@V?$allocator@VNVConstant@nv_objects@@@2@@2@U?$less@$$CBV?$basic_string@DU?$char_traits@D@std@@V?$allocator@D@2@@std@@@2@V?$allocator@VNVConstant@nv_objects@@@2@@2@ABV?$basic_string@DU?$char_traits@D@std@@V?$allocator@D@2@@2@@Z 1000c340 f i nvcomplexmesh.obj
 0001:0000b3d0       ??0?$pair@$$CBV?$basic_string@DU?$char_traits@D@std@@V?$allocator@D@2@@std@@VNVConstant@nv_objects@@@std@@QAE@ABV?$basic_string@DU?$char_traits@D@std@@V?$allocator@D@2@@1@ABVNVConstant@nv_objects@@@Z 1000c3d0 f i nvcomplexmesh.obj
 0001:0000b500       ?FindResourceA@NVResourceManager@nv_objects@@QAEPAVNVBaseResource@2@K@Z 1000c500 f i nvcomplexmesh.obj
 0001:0000b580       ??0?$map@W4_D3DRENDERSTATETYPE@@VNVRenderState@nv_objects@@U?$less@W4_D3DRENDERSTATETYPE@@@std@@V?$allocator@VNVRenderState@nv_objects@@@5@@std@@QAE@ABU?$less@W4_D3DRENDERSTATETYPE@@@1@ABV?$allocator@VNVRenderState@nv_objects@@@1@@Z 1000c580 f i nvcomplexmesh.obj
 0001:0000b630       ??4?$list@VNVComplexMeshSection@nv_objects@@V?$allocator@VNVComplexMeshSection@nv_objects@@@std@@@std@@QAEAAV01@ABV01@@Z 1000c630 f i nvcomplexmesh.obj
 0001:0000b710       ??Eiterator@?$list@VNVComplexMeshSection@nv_objects@@V?$allocator@VNVComplexMeshSection@nv_objects@@@std@@@std@@QAE?AV012@H@Z 1000c710 f i nvcomplexmesh.obj
 0001:0000b720       ??0?$vector@UD3DXVECTOR2@@V?$allocator@UD3DXVECTOR2@@@std@@@std@@QAE@ABV?$allocator@UD3DXVECTOR2@@@1@@Z 1000c720 f i nvcomplexmesh.obj
 0001:0000b740       ??1?$vector@UD3DXVECTOR2@@V?$allocator@UD3DXVECTOR2@@@std@@@std@@QAE@XZ 1000c740 f i nvcomplexmesh.obj
 0001:0000b770       ??4?$vector@UD3DXVECTOR2@@V?$allocator@UD3DXVECTOR2@@@std@@@std@@QAEAAV01@ABV01@@Z 1000c770 f i nvcomplexmesh.obj
 0001:0000b910       ?resize@?$vector@UD3DXVECTOR2@@V?$allocator@UD3DXVECTOR2@@@std@@@std@@QAEXIABUD3DXVECTOR2@@@Z 1000c910 f i nvcomplexmesh.obj
 0001:0000bb20       ?size@?$vector@UD3DXVECTOR2@@V?$allocator@UD3DXVECTOR2@@@std@@@std@@QBEIXZ 1000cb20 f i nvcomplexmesh.obj
 0001:0000bb40       ??0?$vector@UD3DXVECTOR3@@V?$allocator@UD3DXVECTOR3@@@std@@@std@@QAE@ABV?$allocator@UD3DXVECTOR3@@@1@@Z 1000cb40 f i nvcomplexmesh.obj
 0001:0000bb60       ??1?$vector@UD3DXVECTOR3@@V?$allocator@UD3DXVECTOR3@@@std@@@std@@QAE@XZ 1000cb60 f i nvcomplexmesh.obj
 0001:0000bb90       ??4?$vector@UD3DXVECTOR3@@V?$allocator@UD3DXVECTOR3@@@std@@@std@@QAEAAV01@ABV01@@Z 1000cb90 f i nvcomplexmesh.obj
 0001:0000be00       ?resize@?$vector@UD3DXVECTOR3@@V?$allocator@UD3DXVECTOR3@@@std@@@std@@QAEXIABUD3DXVECTOR3@@@Z 1000ce00 f i nvcomplexmesh.obj
 0001:0000c0a0       ?size@?$vector@UD3DXVECTOR3@@V?$allocator@UD3DXVECTOR3@@@std@@@std@@QBEIXZ 1000d0a0 f i nvcomplexmesh.obj
 0001:0000c0c0       ??0?$vector@UD3DXVECTOR4@@V?$allocator@UD3DXVECTOR4@@@std@@@std@@QAE@ABV?$allocator@UD3DXVECTOR4@@@1@@Z 1000d0c0 f i nvcomplexmesh.obj
 0001:0000c0e0       ??1?$vector@UD3DXVECTOR4@@V?$allocator@UD3DXVECTOR4@@@std@@@std@@QAE@XZ 1000d0e0 f i nvcomplexmesh.obj
 0001:0000c110       ??4?$vector@UD3DXVECTOR4@@V?$allocator@UD3DXVECTOR4@@@std@@@std@@QAEAAV01@ABV01@@Z 1000d110 f i nvcomplexmesh.obj
 0001:0000c300       ?resize@?$vector@UD3DXVECTOR4@@V?$allocator@UD3DXVECTOR4@@@std@@@std@@QAEXIABUD3DXVECTOR4@@@Z 1000d300 f i nvcomplexmesh.obj
 0001:0000c550       ?size@?$vector@UD3DXVECTOR4@@V?$allocator@UD3DXVECTOR4@@@std@@@std@@QBEIXZ 1000d550 f i nvcomplexmesh.obj
 0001:0000c570       ?clear@?$vector@UD3DXVECTOR4@@V?$allocator@UD3DXVECTOR4@@@std@@@std@@QAEXXZ 1000d570 f i nvcomplexmesh.obj
 0001:0000c5d0       ??1?$vector@GV?$allocator@G@std@@@std@@QAE@XZ 1000d5d0 f i nvcomplexmesh.obj
 0001:0000c600       ?size@?$vector@GV?$allocator@G@std@@@std@@QBEIXZ 1000d600 f i nvcomplexmesh.obj
 0001:0000c620       ??1?$vector@PAVNVComplexMeshPass@nv_objects@@V?$allocator@PAVNVComplexMeshPass@nv_objects@@@std@@@std@@QAE@XZ 1000d620 f i nvcomplexmesh.obj
 0001:0000c650       ?size@?$vector@PAVNVComplexMeshPass@nv_objects@@V?$allocator@PAVNVComplexMeshPass@nv_objects@@@std@@@std@@QBEIXZ 1000d650 f i nvcomplexmesh.obj
 0001:0000c670       ??1?$vector@PAUIDirect3DIndexBuffer8@@V?$allocator@PAUIDirect3DIndexBuffer8@@@std@@@std@@QAE@XZ 1000d670 f i nvcomplexmesh.obj
 0001:0000c6a0       ??A?$map@KKU?$less@K@std@@V?$allocator@K@2@@std@@QAEAAKABK@Z 1000d6a0 f i nvcomplexmesh.obj
 0001:0000c7c0       ??1?$_Tree@KU?$pair@$$CBKK@std@@U_Kfn@?$map@KKU?$less@K@std@@V?$allocator@K@2@@2@U?$less@K@2@V?$allocator@K@2@@std@@QAE@XZ 1000d7c0 f i nvcomplexmesh.obj
 0001:0000c8a0       ??1?$vector@PAVNVComplexMeshVertexData@nv_objects@@V?$allocator@PAVNVComplexMeshVertexData@nv_objects@@@std@@@std@@QAE@XZ 1000d8a0 f i nvcomplexmesh.obj
 0001:0000c8d0       ??0NVComplexMeshVertexData@nv_objects@@QAE@ABV01@@Z 1000d8d0 f i nvcomplexmesh.obj
 0001:0000ca70       ??1NVTextureResource@nv_objects@@UAE@XZ 1000da70 f i nvcomplexmesh.obj
 0001:0000cad0       ?IsDisposed@NVTextureResource@nv_objects@@UBE_NXZ 1000dad0 f i nvcomplexmesh.obj
 0001:0000cae0       ??_GNVTextureResource@nv_objects@@UAEPAXI@Z 1000dae0 f i nvcomplexmesh.obj
 0001:0000cae0       ??_ENVTextureResource@nv_objects@@UAEPAXI@Z 1000dae0 f i nvcomplexmesh.obj
 0001:0000cb00       ?Invoke@NVTextureFileResource@nv_objects@@UAE_NXZ 1000db00 f i nvcomplexmesh.obj
 0001:0000cbc0       ?Dispose@NVTextureFileResource@nv_objects@@UAE_NXZ 1000dbc0 f i nvcomplexmesh.obj
 0001:0000cbf0       ?IsDeviceObject@NVTextureFileResource@nv_objects@@UBE_NXZ 1000dbf0 f i nvcomplexmesh.obj
 0001:0000cc00       ??_ENVTextureFileResource@nv_objects@@UAEPAXI@Z 1000dc00 f i nvcomplexmesh.obj
 0001:0000cc00       ??_GNVTextureFileResource@nv_objects@@UAEPAXI@Z 1000dc00 f i nvcomplexmesh.obj
 0001:0000cc20       ??1NVTextureFileResource@nv_objects@@UAE@XZ 1000dc20 f i nvcomplexmesh.obj
 0001:0000ccb0       ?IsDisposed@NVMaterialResource@nv_objects@@UBE_NXZ 1000dcb0 f i nvcomplexmesh.obj
 0001:0000ccc0       ?Dispose@NVMaterialResource@nv_objects@@UAE_NXZ 1000dcc0 f i nvcomplexmesh.obj
 0001:0000ccd0       ?Invoke@NVMaterialResource@nv_objects@@UAE_NXZ 1000dcd0 f i nvcomplexmesh.obj
 0001:0000cce0       ?IsDeviceObject@NVMaterialResource@nv_objects@@UBE_NXZ 1000dce0 f i nvcomplexmesh.obj
 0001:0000ccf0       ?FindConstant@NVMaterialResource@nv_objects@@QAEPAVNVConstant@2@ABV?$basic_string@DU?$char_traits@D@std@@V?$allocator@D@2@@std@@@Z 1000dcf0 f i nvcomplexmesh.obj
 0001:0000cd50       ?AddTextureStageState@NVMaterialResource@nv_objects@@QAEPAVNVTextureStageState@2@KW4_D3DTEXTURESTAGESTATETYPE@@K@Z 1000dd50 f i nvcomplexmesh.obj
 0001:0000cec0       ??_ENVMaterialResource@nv_objects@@UAEPAXI@Z 1000dec0 f i nvcomplexmesh.obj
 0001:0000cec0       ??_GNVMaterialResource@nv_objects@@UAEPAXI@Z 1000dec0 f i nvcomplexmesh.obj
 0001:0000cee0       ??1NVMaterialResource@nv_objects@@UAE@XZ 1000dee0 f i nvcomplexmesh.obj
 0001:0000d050       ??1?$map@$$CBV?$basic_string@DU?$char_traits@D@std@@V?$allocator@D@2@@std@@VNVConstant@nv_objects@@U?$less@$$CBV?$basic_string@DU?$char_traits@D@std@@V?$allocator@D@2@@std@@@2@V?$allocator@VNVConstant@nv_objects@@@2@@std@@QAE@XZ 1000e050 f i nvcomplexmesh.obj
 0001:0000d150       ??_F?$map@W4_D3DTEXTURESTAGESTATETYPE@@VNVTextureStageState@nv_objects@@U?$less@W4_D3DTEXTURESTAGESTATETYPE@@@std@@V?$allocator@VNVTextureStageState@nv_objects@@@5@@std@@QAEXXZ 1000e150 f i nvcomplexmesh.obj
 0001:0000d170       ??0?$map@W4_D3DTEXTURESTAGESTATETYPE@@VNVTextureStageState@nv_objects@@U?$less@W4_D3DTEXTURESTAGESTATETYPE@@@std@@V?$allocator@VNVTextureStageState@nv_objects@@@5@@std@@QAE@ABU?$less@W4_D3DTEXTURESTAGESTATETYPE@@@1@ABV?$allocator@VNVTextureStageState@nv_objects@@@1@@Z 1000e170 f i nvcomplexmesh.obj
 0001:0000d220       ??1?$map@W4_D3DTEXTURESTAGESTATETYPE@@VNVTextureStageState@nv_objects@@U?$less@W4_D3DTEXTURESTAGESTATETYPE@@@std@@V?$allocator@VNVTextureStageState@nv_objects@@@5@@std@@QAE@XZ 1000e220 f i nvcomplexmesh.obj
 0001:0000d310       ??1?$map@W4_D3DRENDERSTATETYPE@@VNVRenderState@nv_objects@@U?$less@W4_D3DRENDERSTATETYPE@@@std@@V?$allocator@VNVRenderState@nv_objects@@@5@@std@@QAE@XZ 1000e310 f i nvcomplexmesh.obj
 0001:0000d400       ??1?$pair@$$CBV?$basic_string@DU?$char_traits@D@std@@V?$allocator@D@2@@std@@VNVConstant@nv_objects@@@std@@QAE@XZ 1000e400 f i nvcomplexmesh.obj
 0001:0000d440       ??1NVComplexMeshVertexData@nv_objects@@UAE@XZ 1000e440 f i nvcomplexmesh.obj
 0001:0000d520       ?Release@NVComplexMeshVertexData@nv_objects@@QAEXXZ 1000e520 f i nvcomplexmesh.obj
 0001:0000d5d0       ??_ENVComplexMeshVertexData@nv_objects@@UAEPAXI@Z 1000e5d0 f i nvcomplexmesh.obj
 0001:0000d5d0       ??_GNVComplexMeshVertexData@nv_objects@@UAEPAXI@Z 1000e5d0 f i nvcomplexmesh.obj
 0001:0000d5f0       ?GetIndexArray@NVComplexMesh@nv_objects@@UAEAAV?$vector@GV?$allocator@G@std@@@std@@XZ 1000e5f0 f i nvcomplexmesh.obj
 0001:0000d600       ?GetTrianglesDrawn@NVComplexMesh@nv_objects@@UAEKXZ 1000e600 f i nvcomplexmesh.obj
 0001:0000d610       ?GetVerticesDrawn@NVComplexMesh@nv_objects@@UBEKXZ 1000e610 f i nvcomplexmesh.obj
 0001:0000d620       ?SetNumVertices@NVComplexMesh@nv_objects@@UAEXK@Z 1000e620 f i nvcomplexmesh.obj
 0001:0000d630       ?GetNumVertices@NVComplexMesh@nv_objects@@UBEKXZ 1000e630 f i nvcomplexmesh.obj
 0001:0000d640       ?SetNumIndices@NVComplexMesh@nv_objects@@UAEXK@Z 1000e640 f i nvcomplexmesh.obj
 0001:0000d650       ?GetNumIndices@NVComplexMesh@nv_objects@@UBEKXZ 1000e650 f i nvcomplexmesh.obj
 0001:0000d660       ?AddPass@NVComplexMesh@nv_objects@@UAEPAVNVComplexMeshPass@2@K@Z 1000e660 f i nvcomplexmesh.obj
 0001:0000d770       ?RemovePass@NVComplexMesh@nv_objects@@UAEXK@Z 1000e770 f i nvcomplexmesh.obj
 0001:0000d7b0       ?GetPass@NVComplexMesh@nv_objects@@UAEPAVNVComplexMeshPass@2@K@Z 1000e7b0 f i nvcomplexmesh.obj
 0001:0000d7e0       ?GetVertexBuffer@NVComplexMesh@nv_objects@@UAEPAUIDirect3DVertexBuffer8@@XZ 1000e7e0 f i nvcomplexmesh.obj
 0001:0000d800       ?GetIndexBuffers@NVComplexMesh@nv_objects@@UAEABV?$vector@PAUIDirect3DIndexBuffer8@@V?$allocator@PAUIDirect3DIndexBuffer8@@@std@@@std@@XZ 1000e800 f i nvcomplexmesh.obj
 0001:0000d810       ?AddTrianglesDrawn@NVComplexMesh@nv_objects@@UAEXK@Z 1000e810 f i nvcomplexmesh.obj
 0001:0000d820       ?AddVerticesDrawn@NVComplexMesh@nv_objects@@UAEXK@Z 1000e820 f i nvcomplexmesh.obj
 0001:0000d830       ?ResetStats@NVComplexMesh@nv_objects@@UAEXXZ 1000e830 f i nvcomplexmesh.obj
 0001:0000d840       ?insert@?$map@KPAVNVBaseResource@nv_objects@@U?$less@K@std@@V?$allocator@PAVNVBaseResource@nv_objects@@@4@@std@@QAE?AU?$pair@Viterator@?$_Tree@KU?$pair@$$CBKPAVNVBaseResource@nv_objects@@@std@@U_Kfn@?$map@KPAVNVBaseResource@nv_objects@@U?$less@K@std@@V?$allocator@PAVNVBaseResource@nv_objects@@@4@@2@U?$less@K@2@V?$allocator@PAVNVBaseResource@nv_objects@@@2@@std@@_N@2@ABU?$pair@$$CBKPAVNVBaseResource@nv_objects@@@2@@Z 1000e840 f i nvcomplexmesh.obj
 0001:0000d930       ?begin@?$_Tree@KU?$pair@$$CBKPAVNVBaseResource@nv_objects@@@std@@U_Kfn@?$map@KPAVNVBaseResource@nv_objects@@U?$less@K@std@@V?$allocator@PAVNVBaseResource@nv_objects@@@4@@2@U?$less@K@2@V?$allocator@PAVNVBaseResource@nv_objects@@@2@@std@@QAE?AViterator@12@XZ 1000e930 f i nvcomplexmesh.obj
 0001:0000d940       ??0?$pair@$$CBKPAVNVBaseResource@nv_objects@@@std@@QAE@ABKABQAVNVBaseResource@nv_objects@@@Z 1000e940 f i nvcomplexmesh.obj
 0001:0000d960       ?insert@?$_Tree@KKU_Kfn@?$set@KU?$less@K@std@@V?$allocator@K@2@@std@@U?$less@K@3@V?$allocator@K@3@@std@@QAE?AU?$pair@Viterator@?$_Tree@KKU_Kfn@?$set@KU?$less@K@std@@V?$allocator@K@2@@std@@U?$less@K@3@V?$allocator@K@3@@std@@_N@2@ABK@Z 1000e960 f i nvcomplexmesh.obj
 0001:0000dba0       ??0?$pair@Viterator@?$_Tree@KKU_Kfn@?$set@KU?$less@K@std@@V?$allocator@K@2@@std@@U?$less@K@3@V?$allocator@K@3@@std@@_N@std@@QAE@ABViterator@?$_Tree@KKU_Kfn@?$set@KU?$less@K@std@@V?$allocator@K@2@@std@@U?$less@K@3@V?$allocator@K@3@@1@AB_N@Z 1000eba0 f i nvcomplexmesh.obj
 0001:0000dbc0       ??0?$_Tree@$$CBV?$basic_string@DU?$char_traits@D@std@@V?$allocator@D@2@@std@@U?$pair@$$CBV?$basic_string@DU?$char_traits@D@std@@V?$allocator@D@2@@std@@VNVConstant@nv_objects@@@2@U_Kfn@?$map@$$CBV?$basic_string@DU?$char_traits@D@std@@V?$allocator@D@2@@std@@VNVConstant@nv_objects@@U?$less@$$CBV?$basic_string@DU?$char_traits@D@std@@V?$allocator@D@2@@std@@@2@V?$allocator@VNVConstant@nv_objects@@@2@@2@U?$less@$$CBV?$basic_string@DU?$char_traits@D@std@@V?$allocator@D@2@@std@@@2@V?$allocator@VNVConstant@nv_objects@@@2@@std@@QAE@ABU?$less@$$CBV?$basic_string@DU?$char_traits@D@std@@V?$allocator@D@2@@std@@@1@_NABV?$allocator@VNVConstant@nv_objects@@@1@@Z 1000ebc0 f i nvcomplexmesh.obj
 0001:0000dbf0       ?begin@?$_Tree@$$CBV?$basic_string@DU?$char_traits@D@std@@V?$allocator@D@2@@std@@U?$pair@$$CBV?$basic_string@DU?$char_traits@D@std@@V?$allocator@D@2@@std@@VNVConstant@nv_objects@@@2@U_Kfn@?$map@$$CBV?$basic_string@DU?$char_traits@D@std@@V?$allocator@D@2@@std@@VNVConstant@nv_objects@@U?$less@$$CBV?$basic_string@DU?$char_traits@D@std@@V?$allocator@D@2@@std@@@2@V?$allocator@VNVConstant@nv_objects@@@2@@2@U?$less@$$CBV?$basic_string@DU?$char_traits@D@std@@V?$allocator@D@2@@std@@@2@V?$allocator@VNVConstant@nv_objects@@@2@@std@@QAE?AViterator@12@XZ 1000ebf0 f i nvcomplexmesh.obj
 0001:0000dc00       ?erase@?$_Tree@$$CBV?$basic_string@DU?$char_traits@D@std@@V?$allocator@D@2@@std@@U?$pair@$$CBV?$basic_string@DU?$char_traits@D@std@@V?$allocator@D@2@@std@@VNVConstant@nv_objects@@@2@U_Kfn@?$map@$$CBV?$basic_string@DU?$char_traits@D@std@@V?$allocator@D@2@@std@@VNVConstant@nv_objects@@U?$less@$$CBV?$basic_string@DU?$char_traits@D@std@@V?$allocator@D@2@@std@@@2@V?$allocator@VNVConstant@nv_objects@@@2@@2@U?$less@$$CBV?$basic_string@DU?$char_traits@D@std@@V?$allocator@D@2@@std@@@2@V?$allocator@VNVConstant@nv_objects@@@2@@std@@QAE?AViterator@12@V312@0@Z 1000ec00 f i nvcomplexmesh.obj
 0001:0000dcb0       ?_Init@?$_Tree@$$CBV?$basic_string@DU?$char_traits@D@std@@V?$allocator@D@2@@std@@U?$pair@$$CBV?$basic_string@DU?$char_traits@D@std@@V?$allocator@D@2@@std@@VNVConstant@nv_objects@@@2@U_Kfn@?$map@$$CBV?$basic_string@DU?$char_traits@D@std@@V?$allocator@D@2@@std@@VNVConstant@nv_objects@@U?$less@$$CBV?$basic_string@DU?$char_traits@D@std@@V?$allocator@D@2@@std@@@2@V?$allocator@VNVConstant@nv_objects@@@2@@2@U?$less@$$CBV?$basic_string@DU?$char_traits@D@std@@V?$allocator@D@2@@std@@@2@V?$allocator@VNVConstant@nv_objects@@@2@@std@@IAEXXZ 1000ecb0 f i nvcomplexmesh.obj
 0001:0000dd50       ?begin@?$_Tree@W4_D3DTEXTURESTAGESTATETYPE@@U?$pair@$$CBW4_D3DTEXTURESTAGESTATETYPE@@VNVTextureStageState@nv_objects@@@std@@U_Kfn@?$map@W4_D3DTEXTURESTAGESTATETYPE@@VNVTextureStageState@nv_objects@@U?$less@W4_D3DTEXTURESTAGESTATETYPE@@@std@@V?$allocator@VNVTextureStageState@nv_objects@@@5@@3@U?$less@W4_D3DTEXTURESTAGESTATETYPE@@@3@V?$allocator@VNVTextureStageState@nv_objects@@@3@@std@@QAE?AViterator@12@XZ 1000ed50 f i nvcomplexmesh.obj
 0001:0000dd60       ?find@?$_Tree@W4_D3DTEXTURESTAGESTATETYPE@@U?$pair@$$CBW4_D3DTEXTURESTAGESTATETYPE@@VNVTextureStageState@nv_objects@@@std@@U_Kfn@?$map@W4_D3DTEXTURESTAGESTATETYPE@@VNVTextureStageState@nv_objects@@U?$less@W4_D3DTEXTURESTAGESTATETYPE@@@std@@V?$allocator@VNVTextureStageState@nv_objects@@@5@@3@U?$less@W4_D3DTEXTURESTAGESTATETYPE@@@3@V?$allocator@VNVTextureStageState@nv_objects@@@3@@std@@QAE?AViterator@12@ABW4_D3DTEXTURESTAGESTATETYPE@@@Z 1000ed60 f i nvcomplexmesh.obj
 0001:0000ddd0       ?begin@?$_Tree@W4_D3DRENDERSTATETYPE@@U?$pair@$$CBW4_D3DRENDERSTATETYPE@@VNVRenderState@nv_objects@@@std@@U_Kfn@?$map@W4_D3DRENDERSTATETYPE@@VNVRenderState@nv_objects@@U?$less@W4_D3DRENDERSTATETYPE@@@std@@V?$allocator@VNVRenderState@nv_objects@@@5@@3@U?$less@W4_D3DRENDERSTATETYPE@@@3@V?$allocator@VNVRenderState@nv_objects@@@3@@std@@QAE?AViterator@12@XZ 1000edd0 f i nvcomplexmesh.obj
 0001:0000dde0       ?insert@?$_Tree@W4_D3DRENDERSTATETYPE@@U?$pair@$$CBW4_D3DRENDERSTATETYPE@@VNVRenderState@nv_objects@@@std@@U_Kfn@?$map@W4_D3DRENDERSTATETYPE@@VNVRenderState@nv_objects@@U?$less@W4_D3DRENDERSTATETYPE@@@std@@V?$allocator@VNVRenderState@nv_objects@@@5@@3@U?$less@W4_D3DRENDERSTATETYPE@@@3@V?$allocator@VNVRenderState@nv_objects@@@3@@std@@QAE?AU?$pair@Viterator@?$_Tree@W4_D3DRENDERSTATETYPE@@U?$pair@$$CBW4_D3DRENDERSTATETYPE@@VNVRenderState@nv_objects@@@std@@U_Kfn@?$map@W4_D3DRENDERSTATETYPE@@VNVRenderState@nv_objects@@U?$less@W4_D3DRENDERSTATETYPE@@@std@@V?$allocator@VNVRenderState@nv_objects@@@5@@3@U?$less@W4_D3DRENDERSTATETYPE@@@3@V?$allocator@VNVRenderState@nv_objects@@@3@@std@@_N@2@ABU?$pair@$$CBW4_D3DRENDERSTATETYPE@@VNVRenderState@nv_objects@@@2@@Z 1000ede0 f i nvcomplexmesh.obj
 0001:0000e020       ?erase@?$_Tree@W4_D3DRENDERSTATETYPE@@U?$pair@$$CBW4_D3DRENDERSTATETYPE@@VNVRenderState@nv_objects@@@std@@U_Kfn@?$map@W4_D3DRENDERSTATETYPE@@VNVRenderState@nv_objects@@U?$less@W4_D3DRENDERSTATETYPE@@@std@@V?$allocator@VNVRenderState@nv_objects@@@5@@3@U?$less@W4_D3DRENDERSTATETYPE@@@3@V?$allocator@VNVRenderState@nv_objects@@@3@@std@@QAE?AViterator@12@V312@0@Z 1000f020 f i nvcomplexmesh.obj
 0001:0000e0d0       ??0?$pair@Viterator@?$_Tree@W4_D3DRENDERSTATETYPE@@U?$pair@$$CBW4_D3DRENDERSTATETYPE@@VNVRenderState@nv_objects@@@std@@U_Kfn@?$map@W4_D3DRENDERSTATETYPE@@VNVRenderState@nv_objects@@U?$less@W4_D3DRENDERSTATETYPE@@@std@@V?$allocator@VNVRenderState@nv_objects@@@5@@3@U?$less@W4_D3DRENDERSTATETYPE@@@3@V?$allocator@VNVRenderState@nv_objects@@@3@@std@@_N@std@@QAE@ABViterator@?$_Tree@W4_D3DRENDERSTATETYPE@@U?$pair@$$CBW4_D3DRENDERSTATETYPE@@VNVRenderState@nv_objects@@@std@@U_Kfn@?$map@W4_D3DRENDERSTATETYPE@@VNVRenderState@nv_objects@@U?$less@W4_D3DRENDERSTATETYPE@@@std@@V?$allocator@VNVRenderState@nv_objects@@@5@@3@U?$less@W4_D3DRENDERSTATETYPE@@@3@V?$allocator@VNVRenderState@nv_objects@@@3@@1@AB_N@Z 1000f0d0 f i nvcomplexmesh.obj
 0001:0000e0f0       ?insert@?$list@VNVComplexMeshSection@nv_objects@@V?$allocator@VNVComplexMeshSection@nv_objects@@@std@@@std@@QAE?AViterator@12@V312@ABVNVComplexMeshSection@nv_objects@@@Z 1000f0f0 f i nvcomplexmesh.obj
 0001:0000e150       ?insert@?$vector@UD3DXVECTOR2@@V?$allocator@UD3DXVECTOR2@@@std@@@std@@QAEXPAUD3DXVECTOR2@@IABU3@@Z 1000f150 f i nvcomplexmesh.obj
 0001:0000e3a0       ?erase@?$vector@UD3DXVECTOR2@@V?$allocator@UD3DXVECTOR2@@@std@@@std@@QAEPAUD3DXVECTOR2@@PAU3@0@Z 1000f3a0 f i nvcomplexmesh.obj
 0001:0000e3e0       ?_Destroy@?$vector@UD3DXVECTOR2@@V?$allocator@UD3DXVECTOR2@@@std@@@std@@IAEXPAUD3DXVECTOR2@@0@Z 1000f3e0 f i nvcomplexmesh.obj
 0001:0000e3f0       ?_Ucopy@?$vector@UD3DXVECTOR2@@V?$allocator@UD3DXVECTOR2@@@std@@@std@@IAEPAUD3DXVECTOR2@@PBU3@0PAU3@@Z 1000f3f0 f i nvcomplexmesh.obj
 0001:0000e430       ?insert@?$vector@UD3DXVECTOR3@@V?$allocator@UD3DXVECTOR3@@@std@@@std@@QAEPAUD3DXVECTOR3@@PAU3@ABU3@@Z 1000f430 f i nvcomplexmesh.obj
 0001:0000e650       ?insert@?$vector@UD3DXVECTOR3@@V?$allocator@UD3DXVECTOR3@@@std@@@std@@QAEXPAUD3DXVECTOR3@@IABU3@@Z 1000f650 f i nvcomplexmesh.obj
 0001:0000e980       ?erase@?$vector@UD3DXVECTOR3@@V?$allocator@UD3DXVECTOR3@@@std@@@std@@QAEPAUD3DXVECTOR3@@PAU3@0@Z 1000f980 f i nvcomplexmesh.obj
 0001:0000e9d0       ?_Destroy@?$vector@UD3DXVECTOR3@@V?$allocator@UD3DXVECTOR3@@@std@@@std@@IAEXPAUD3DXVECTOR3@@0@Z 1000f9d0 f i nvcomplexmesh.obj
 0001:0000e9e0       ?_Ucopy@?$vector@UD3DXVECTOR3@@V?$allocator@UD3DXVECTOR3@@@std@@@std@@IAEPAUD3DXVECTOR3@@PBU3@0PAU3@@Z 1000f9e0 f i nvcomplexmesh.obj
 0001:0000ea30       ?insert@?$vector@UD3DXVECTOR4@@V?$allocator@UD3DXVECTOR4@@@std@@@std@@QAEXPAUD3DXVECTOR4@@IABU3@@Z 1000fa30 f i nvcomplexmesh.obj
 0001:0000ed40       ?erase@?$vector@UD3DXVECTOR4@@V?$allocator@UD3DXVECTOR4@@@std@@@std@@QAEPAUD3DXVECTOR4@@PAU3@0@Z 1000fd40 f i nvcomplexmesh.obj
 0001:0000ed90       ?_Destroy@?$vector@UD3DXVECTOR4@@V?$allocator@UD3DXVECTOR4@@@std@@@std@@IAEXPAUD3DXVECTOR4@@0@Z 1000fd90 f i nvcomplexmesh.obj
 0001:0000eda0       ?_Ucopy@?$vector@UD3DXVECTOR4@@V?$allocator@UD3DXVECTOR4@@@std@@@std@@IAEPAUD3DXVECTOR4@@PBU3@0PAU3@@Z 1000fda0 f i nvcomplexmesh.obj
 0001:0000edf0       ?insert@?$vector@GV?$allocator@G@std@@@std@@QAEXPAGIABG@Z 1000fdf0 f i nvcomplexmesh.obj
 0001:0000f000       ?erase@?$vector@GV?$allocator@G@std@@@std@@QAEPAGPAG0@Z 10010000 f i nvcomplexmesh.obj
 0001:0000f040       ?insert@?$vector@PAVNVComplexMeshPass@nv_objects@@V?$allocator@PAVNVComplexMeshPass@nv_objects@@@std@@@std@@QAEPAPAVNVComplexMeshPass@nv_objects@@PAPAV34@ABQAV34@@Z 10010040 f i nvcomplexmesh.obj
 0001:0000f1e0       ?insert@?$vector@PAVNVComplexMeshPass@nv_objects@@V?$allocator@PAVNVComplexMeshPass@nv_objects@@@std@@@std@@QAEXPAPAVNVComplexMeshPass@nv_objects@@IABQAV34@@Z 100101e0 f i nvcomplexmesh.obj
 0001:0000f3f0       ?erase@?$vector@PAVNVComplexMeshPass@nv_objects@@V?$allocator@PAVNVComplexMeshPass@nv_objects@@@std@@@std@@QAEPAPAVNVComplexMeshPass@nv_objects@@PAPAV34@0@Z 100103f0 f i nvcomplexmesh.obj
 0001:0000f430       ?_Destroy@?$vector@PAVNVComplexMeshPass@nv_objects@@V?$allocator@PAVNVComplexMeshPass@nv_objects@@@std@@@std@@IAEXPAPAVNVComplexMeshPass@nv_objects@@0@Z 10010430 f i nvcomplexmesh.obj
 0001:0000f440       ?begin@?$_Tree@$$CBV?$basic_string@DU?$char_traits@D@std@@V?$allocator@D@2@@std@@U?$pair@$$CBV?$basic_string@DU?$char_traits@D@std@@V?$allocator@D@2@@std@@VNVComplexMeshVertexData@nv_objects@@@2@U_Kfn@?$map@$$CBV?$basic_string@DU?$char_traits@D@std@@V?$allocator@D@2@@std@@VNVComplexMeshVertexData@nv_objects@@U?$less@$$CBV?$basic_string@DU?$char_traits@D@std@@V?$allocator@D@2@@std@@@2@V?$allocator@VNVComplexMeshVertexData@nv_objects@@@2@@2@U?$less@$$CBV?$basic_string@DU?$char_traits@D@std@@V?$allocator@D@2@@std@@@2@V?$allocator@VNVComplexMeshVertexData@nv_objects@@@2@@std@@QAE?AViterator@12@XZ 10010440 f i nvcomplexmesh.obj
 0001:0000f450       ?insert@?$_Tree@$$CBV?$basic_string@DU?$char_traits@D@std@@V?$allocator@D@2@@std@@U?$pair@$$CBV?$basic_string@DU?$char_traits@D@std@@V?$allocator@D@2@@std@@VNVComplexMeshVertexData@nv_objects@@@2@U_Kfn@?$map@$$CBV?$basic_string@DU?$char_traits@D@std@@V?$allocator@D@2@@std@@VNVComplexMeshVertexData@nv_objects@@U?$less@$$CBV?$basic_string@DU?$char_traits@D@std@@V?$allocator@D@2@@std@@@2@V?$allocator@VNVComplexMeshVertexData@nv_objects@@@2@@2@U?$less@$$CBV?$basic_string@DU?$char_traits@D@std@@V?$allocator@D@2@@std@@@2@V?$allocator@VNVComplexMeshVertexData@nv_objects@@@2@@std@@QAE?AU?$pair@Viterator@?$_Tree@$$CBV?$basic_string@DU?$char_traits@D@std@@V?$allocator@D@2@@std@@U?$pair@$$CBV?$basic_string@DU?$char_traits@D@std@@V?$allocator@D@2@@std@@VNVComplexMeshVertexData@nv_objects@@@2@U_Kfn@?$map@$$CBV?$basic_string@DU?$char_traits@D@std@@V?$allocator@D@2@@std@@VNVComplexMeshVertexData@nv_objects@@U?$less@$$CBV?$basic_string@DU?$char_traits@D@std@@V?$allocator@D@2@@std@@@2@V?$allocator@VNVComplexMeshVertexData@nv_objects@@@2@@2@U?$less@$$CBV?$basic_string@DU?$char_traits@D@std@@V?$allocator@D@2@@std@@@2@V?$allocator@VNVComplexMeshVertexData@nv_objects@@@2@@std@@_N@2@ABU?$pair@$$CBV?$basic_string@DU?$char_traits@D@std@@V?$allocator@D@2@@std@@VNVComplexMeshVertexData@nv_objects@@@2@@Z 10010450 f i nvcomplexmesh.obj
 0001:0000f6a0       ?erase@?$_Tree@$$CBV?$basic_string@DU?$char_traits@D@std@@V?$allocator@D@2@@std@@U?$pair@$$CBV?$basic_string@DU?$char_traits@D@std@@V?$allocator@D@2@@std@@VNVComplexMeshVertexData@nv_objects@@@2@U_Kfn@?$map@$$CBV?$basic_string@DU?$char_traits@D@std@@V?$allocator@D@2@@std@@VNVComplexMeshVertexData@nv_objects@@U?$less@$$CBV?$basic_string@DU?$char_traits@D@std@@V?$allocator@D@2@@std@@@2@V?$allocator@VNVComplexMeshVertexData@nv_objects@@@2@@2@U?$less@$$CBV?$basic_string@DU?$char_traits@D@std@@V?$allocator@D@2@@std@@@2@V?$allocator@VNVComplexMeshVertexData@nv_objects@@@2@@std@@QAE?AViterator@12@V312@0@Z 100106a0 f i nvcomplexmesh.obj
 0001:0000f750       ?erase@?$vector@PAUIDirect3DIndexBuffer8@@V?$allocator@PAUIDirect3DIndexBuffer8@@@std@@@std@@QAEPAPAUIDirect3DIndexBuffer8@@PAPAU3@0@Z 10010750 f i nvcomplexmesh.obj
 0001:0000f790       ??0?$_Tree@KU?$pair@$$CBKK@std@@U_Kfn@?$map@KKU?$less@K@std@@V?$allocator@K@2@@2@U?$less@K@2@V?$allocator@K@2@@std@@QAE@ABU?$less@K@1@_NABV?$allocator@K@1@@Z 10010790 f i nvcomplexmesh.obj
 0001:0000f7c0       ?begin@?$_Tree@KU?$pair@$$CBKK@std@@U_Kfn@?$map@KKU?$less@K@std@@V?$allocator@K@2@@2@U?$less@K@2@V?$allocator@K@2@@std@@QAE?AViterator@12@XZ 100107c0 f i nvcomplexmesh.obj
 0001:0000f7d0       ?insert@?$_Tree@KU?$pair@$$CBKK@std@@U_Kfn@?$map@KKU?$less@K@std@@V?$allocator@K@2@@2@U?$less@K@2@V?$allocator@K@2@@std@@QAE?AU?$pair@Viterator@?$_Tree@KU?$pair@$$CBKK@std@@U_Kfn@?$map@KKU?$less@K@std@@V?$allocator@K@2@@2@U?$less@K@2@V?$allocator@K@2@@std@@_N@2@ABU?$pair@$$CBKK@2@@Z 100107d0 f i nvcomplexmesh.obj
 0001:0000fa10       ?find@?$_Tree@KU?$pair@$$CBKK@std@@U_Kfn@?$map@KKU?$less@K@std@@V?$allocator@K@2@@2@U?$less@K@2@V?$allocator@K@2@@std@@QAE?AViterator@12@ABK@Z 10010a10 f i nvcomplexmesh.obj
 0001:0000fa80       ??0?$pair@Viterator@?$_Tree@KU?$pair@$$CBKK@std@@U_Kfn@?$map@KKU?$less@K@std@@V?$allocator@K@2@@2@U?$less@K@2@V?$allocator@K@2@@std@@_N@std@@QAE@ABViterator@?$_Tree@KU?$pair@$$CBKK@std@@U_Kfn@?$map@KKU?$less@K@std@@V?$allocator@K@2@@2@U?$less@K@2@V?$allocator@K@2@@1@AB_N@Z 10010a80 f i nvcomplexmesh.obj
 0001:0000faa0       ?insert@?$vector@PAVNVComplexMeshVertexData@nv_objects@@V?$allocator@PAVNVComplexMeshVertexData@nv_objects@@@std@@@std@@QAEPAPAVNVComplexMeshVertexData@nv_objects@@PAPAV34@ABQAV34@@Z 10010aa0 f i nvcomplexmesh.obj
 0001:0000fc40       ?_Destroy@?$vector@PAVNVComplexMeshVertexData@nv_objects@@V?$allocator@PAVNVComplexMeshVertexData@nv_objects@@@std@@@std@@IAEXPAPAVNVComplexMeshVertexData@nv_objects@@0@Z 10010c40 f i nvcomplexmesh.obj
 0001:0000fc50       ?lower_bound@?$_Tree@KU?$pair@$$CBKPAVNVBaseResource@nv_objects@@@std@@U_Kfn@?$map@KPAVNVBaseResource@nv_objects@@U?$less@K@std@@V?$allocator@PAVNVBaseResource@nv_objects@@@4@@2@U?$less@K@2@V?$allocator@PAVNVBaseResource@nv_objects@@@2@@std@@QAE?AViterator@12@ABK@Z 10010c50 f i nvcomplexmesh.obj
 0001:0000fc90       ?_Insert@?$_Tree@KKU_Kfn@?$set@KU?$less@K@std@@V?$allocator@K@2@@std@@U?$less@K@3@V?$allocator@K@3@@std@@IAE?AViterator@12@PAU_Node@12@0ABK@Z 10010c90 f i nvcomplexmesh.obj
 0001:0000ff00       ?erase@?$_Tree@$$CBV?$basic_string@DU?$char_traits@D@std@@V?$allocator@D@2@@std@@U?$pair@$$CBV?$basic_string@DU?$char_traits@D@std@@V?$allocator@D@2@@std@@VNVConstant@nv_objects@@@2@U_Kfn@?$map@$$CBV?$basic_string@DU?$char_traits@D@std@@V?$allocator@D@2@@std@@VNVConstant@nv_objects@@U?$less@$$CBV?$basic_string@DU?$char_traits@D@std@@V?$allocator@D@2@@std@@@2@V?$allocator@VNVConstant@nv_objects@@@2@@2@U?$less@$$CBV?$basic_string@DU?$char_traits@D@std@@V?$allocator@D@2@@std@@@2@V?$allocator@VNVConstant@nv_objects@@@2@@std@@QAE?AViterator@12@V312@@Z 10010f00 f i nvcomplexmesh.obj
 0001:000102e0       ?_Copy@?$_Tree@$$CBV?$basic_string@DU?$char_traits@D@std@@V?$allocator@D@2@@std@@U?$pair@$$CBV?$basic_string@DU?$char_traits@D@std@@V?$allocator@D@2@@std@@VNVConstant@nv_objects@@@2@U_Kfn@?$map@$$CBV?$basic_string@DU?$char_traits@D@std@@V?$allocator@D@2@@std@@VNVConstant@nv_objects@@U?$less@$$CBV?$basic_string@DU?$char_traits@D@std@@V?$allocator@D@2@@std@@@2@V?$allocator@VNVConstant@nv_objects@@@2@@2@U?$less@$$CBV?$basic_string@DU?$char_traits@D@std@@V?$allocator@D@2@@std@@@2@V?$allocator@VNVConstant@nv_objects@@@2@@std@@IAEPAU_Node@12@PAU312@0@Z 100112e0 f i nvcomplexmesh.obj
 0001:00010370       ?_Erase@?$_Tree@$$CBV?$basic_string@DU?$char_traits@D@std@@V?$allocator@D@2@@std@@U?$pair@$$CBV?$basic_string@DU?$char_traits@D@std@@V?$allocator@D@2@@std@@VNVConstant@nv_objects@@@2@U_Kfn@?$map@$$CBV?$basic_string@DU?$char_traits@D@std@@V?$allocator@D@2@@std@@VNVConstant@nv_objects@@U?$less@$$CBV?$basic_string@DU?$char_traits@D@std@@V?$allocator@D@2@@std@@@2@V?$allocator@VNVConstant@nv_objects@@@2@@2@U?$less@$$CBV?$basic_string@DU?$char_traits@D@std@@V?$allocator@D@2@@std@@@2@V?$allocator@VNVConstant@nv_objects@@@2@@std@@IAEXPAU_Node@12@@Z 10011370 f i nvcomplexmesh.obj
 0001:000103c0       ?_Insert@?$_Tree@$$CBV?$basic_string@DU?$char_traits@D@std@@V?$allocator@D@2@@std@@U?$pair@$$CBV?$basic_string@DU?$char_traits@D@std@@V?$allocator@D@2@@std@@VNVConstant@nv_objects@@@2@U_Kfn@?$map@$$CBV?$basic_string@DU?$char_traits@D@std@@V?$allocator@D@2@@std@@VNVConstant@nv_objects@@U?$less@$$CBV?$basic_string@DU?$char_traits@D@std@@V?$allocator@D@2@@std@@@2@V?$allocator@VNVConstant@nv_objects@@@2@@2@U?$less@$$CBV?$basic_string@DU?$char_traits@D@std@@V?$allocator@D@2@@std@@@2@V?$allocator@VNVConstant@nv_objects@@@2@@std@@IAE?AViterator@12@PAU_Node@12@0ABU?$pair@$$CBV?$basic_string@DU?$char_traits@D@std@@V?$allocator@D@2@@std@@VNVConstant@nv_objects@@@2@@Z 100113c0 f i nvcomplexmesh.obj
 0001:00010630       ?_Buynode@?$_Tree@$$CBV?$basic_string@DU?$char_traits@D@std@@V?$allocator@D@2@@std@@U?$pair@$$CBV?$basic_string@DU?$char_traits@D@std@@V?$allocator@D@2@@std@@VNVConstant@nv_objects@@@2@U_Kfn@?$map@$$CBV?$basic_string@DU?$char_traits@D@std@@V?$allocator@D@2@@std@@VNVConstant@nv_objects@@U?$less@$$CBV?$basic_string@DU?$char_traits@D@std@@V?$allocator@D@2@@std@@@2@V?$allocator@VNVConstant@nv_objects@@@2@@2@U?$less@$$CBV?$basic_string@DU?$char_traits@D@std@@V?$allocator@D@2@@std@@@2@V?$allocator@VNVConstant@nv_objects@@@2@@std@@IAEPAU_Node@12@PAU312@W4_Redbl@12@@Z 10011630 f i nvcomplexmesh.obj
 0001:00010650       ?_Inc@const_iterator@?$_Tree@$$CBV?$basic_string@DU?$char_traits@D@std@@V?$allocator@D@2@@std@@U?$pair@$$CBV?$basic_string@DU?$char_traits@D@std@@V?$allocator@D@2@@std@@VNVConstant@nv_objects@@@2@U_Kfn@?$map@$$CBV?$basic_string@DU?$char_traits@D@std@@V?$allocator@D@2@@std@@VNVConstant@nv_objects@@U?$less@$$CBV?$basic_string@DU?$char_traits@D@std@@V?$allocator@D@2@@std@@@2@V?$allocator@VNVConstant@nv_objects@@@2@@2@U?$less@$$CBV?$basic_string@DU?$char_traits@D@std@@V?$allocator@D@2@@std@@@2@V?$allocator@VNVConstant@nv_objects@@@2@@std@@QAEXXZ 10011650 f i nvcomplexmesh.obj
 0001:000106a0       ?erase@?$_Tree@W4_D3DTEXTURESTAGESTATETYPE@@U?$pair@$$CBW4_D3DTEXTURESTAGESTATETYPE@@VNVTextureStageState@nv_objects@@@std@@U_Kfn@?$map@W4_D3DTEXTURESTAGESTATETYPE@@VNVTextureStageState@nv_objects@@U?$less@W4_D3DTEXTURESTAGESTATETYPE@@@std@@V?$allocator@VNVTextureStageState@nv_objects@@@5@@3@U?$less@W4_D3DTEXTURESTAGESTATETYPE@@@3@V?$allocator@VNVTextureStageState@nv_objects@@@3@@std@@QAE?AViterator@12@V312@@Z 100116a0 f i nvcomplexmesh.obj
 0001:00010a70       ?_Copy@?$_Tree@W4_D3DTEXTURESTAGESTATETYPE@@U?$pair@$$CBW4_D3DTEXTURESTAGESTATETYPE@@VNVTextureStageState@nv_objects@@@std@@U_Kfn@?$map@W4_D3DTEXTURESTAGESTATETYPE@@VNVTextureStageState@nv_objects@@U?$less@W4_D3DTEXTURESTAGESTATETYPE@@@std@@V?$allocator@VNVTextureStageState@nv_objects@@@5@@3@U?$less@W4_D3DTEXTURESTAGESTATETYPE@@@3@V?$allocator@VNVTextureStageState@nv_objects@@@3@@std@@IAEPAU_Node@12@PAU312@0@Z 10011a70 f i nvcomplexmesh.obj
 0001:00010b00       ?_Erase@?$_Tree@W4_D3DTEXTURESTAGESTATETYPE@@U?$pair@$$CBW4_D3DTEXTURESTAGESTATETYPE@@VNVTextureStageState@nv_objects@@@std@@U_Kfn@?$map@W4_D3DTEXTURESTAGESTATETYPE@@VNVTextureStageState@nv_objects@@U?$less@W4_D3DTEXTURESTAGESTATETYPE@@@std@@V?$allocator@VNVTextureStageState@nv_objects@@@5@@3@U?$less@W4_D3DTEXTURESTAGESTATETYPE@@@3@V?$allocator@VNVTextureStageState@nv_objects@@@3@@std@@IAEXPAU_Node@12@@Z 10011b00 f i nvcomplexmesh.obj
 0001:00010b40       ?_Inc@const_iterator@?$_Tree@W4_D3DTEXTURESTAGESTATETYPE@@U?$pair@$$CBW4_D3DTEXTURESTAGESTATETYPE@@VNVTextureStageState@nv_objects@@@std@@U_Kfn@?$map@W4_D3DTEXTURESTAGESTATETYPE@@VNVTextureStageState@nv_objects@@U?$less@W4_D3DTEXTURESTAGESTATETYPE@@@std@@V?$allocator@VNVTextureStageState@nv_objects@@@5@@3@U?$less@W4_D3DTEXTURESTAGESTATETYPE@@@3@V?$allocator@VNVTextureStageState@nv_objects@@@3@@std@@QAEXXZ 10011b40 f i nvcomplexmesh.obj
 0001:00010b90       ?erase@?$_Tree@W4_D3DRENDERSTATETYPE@@U?$pair@$$CBW4_D3DRENDERSTATETYPE@@VNVRenderState@nv_objects@@@std@@U_Kfn@?$map@W4_D3DRENDERSTATETYPE@@VNVRenderState@nv_objects@@U?$less@W4_D3DRENDERSTATETYPE@@@std@@V?$allocator@VNVRenderState@nv_objects@@@5@@3@U?$less@W4_D3DRENDERSTATETYPE@@@3@V?$allocator@VNVRenderState@nv_objects@@@3@@std@@QAE?AViterator@12@V312@@Z 10011b90 f i nvcomplexmesh.obj
 0001:00010f60       ?_Copy@?$_Tree@W4_D3DRENDERSTATETYPE@@U?$pair@$$CBW4_D3DRENDERSTATETYPE@@VNVRenderState@nv_objects@@@std@@U_Kfn@?$map@W4_D3DRENDERSTATETYPE@@VNVRenderState@nv_objects@@U?$less@W4_D3DRENDERSTATETYPE@@@std@@V?$allocator@VNVRenderState@nv_objects@@@5@@3@U?$less@W4_D3DRENDERSTATETYPE@@@3@V?$allocator@VNVRenderState@nv_objects@@@3@@std@@IAEPAU_Node@12@PAU312@0@Z 10011f60 f i nvcomplexmesh.obj
 0001:00010ff0       ?_Erase@?$_Tree@W4_D3DRENDERSTATETYPE@@U?$pair@$$CBW4_D3DRENDERSTATETYPE@@VNVRenderState@nv_objects@@@std@@U_Kfn@?$map@W4_D3DRENDERSTATETYPE@@VNVRenderState@nv_objects@@U?$less@W4_D3DRENDERSTATETYPE@@@std@@V?$allocator@VNVRenderState@nv_objects@@@5@@3@U?$less@W4_D3DRENDERSTATETYPE@@@3@V?$allocator@VNVRenderState@nv_objects@@@3@@std@@IAEXPAU_Node@12@@Z 10011ff0 f i nvcomplexmesh.obj
 0001:00011030       ?_Buynode@?$_Tree@W4_D3DRENDERSTATETYPE@@U?$pair@$$CBW4_D3DRENDERSTATETYPE@@VNVRenderState@nv_objects@@@std@@U_Kfn@?$map@W4_D3DRENDERSTATETYPE@@VNVRenderState@nv_objects@@U?$less@W4_D3DRENDERSTATETYPE@@@std@@V?$allocator@VNVRenderState@nv_objects@@@5@@3@U?$less@W4_D3DRENDERSTATETYPE@@@3@V?$allocator@VNVRenderState@nv_objects@@@3@@std@@IAEPAU_Node@12@PAU312@W4_Redbl@12@@Z 10012030 f i nvcomplexmesh.obj
 0001:00011050       ?_Inc@const_iterator@?$_Tree@W4_D3DRENDERSTATETYPE@@U?$pair@$$CBW4_D3DRENDERSTATETYPE@@VNVRenderState@nv_objects@@@std@@U_Kfn@?$map@W4_D3DRENDERSTATETYPE@@VNVRenderState@nv_objects@@U?$less@W4_D3DRENDERSTATETYPE@@@std@@V?$allocator@VNVRenderState@nv_objects@@@5@@3@U?$less@W4_D3DRENDERSTATETYPE@@@3@V?$allocator@VNVRenderState@nv_objects@@@3@@std@@QAEXXZ 10012050 f i nvcomplexmesh.obj
 0001:000110a0       ?_Ufill@?$vector@UD3DXVECTOR2@@V?$allocator@UD3DXVECTOR2@@@std@@@std@@IAEXPAUD3DXVECTOR2@@IABU3@@Z 100120a0 f i nvcomplexmesh.obj
 0001:000110d0       ?_Ufill@?$vector@UD3DXVECTOR3@@V?$allocator@UD3DXVECTOR3@@@std@@@std@@IAEXPAUD3DXVECTOR3@@IABU3@@Z 100120d0 f i nvcomplexmesh.obj
 0001:00011110       ?_Ufill@?$vector@UD3DXVECTOR4@@V?$allocator@UD3DXVECTOR4@@@std@@@std@@IAEXPAUD3DXVECTOR4@@IABU3@@Z 10012110 f i nvcomplexmesh.obj
 0001:00011150       ?_Ucopy@?$vector@PAVNVComplexMeshPass@nv_objects@@V?$allocator@PAVNVComplexMeshPass@nv_objects@@@std@@@std@@IAEPAPAVNVComplexMeshPass@nv_objects@@PBQAV34@0PAPAV34@@Z 10012150 f i nvcomplexmesh.obj
 0001:00011180       ?_Ufill@?$vector@PAVNVComplexMeshPass@nv_objects@@V?$allocator@PAVNVComplexMeshPass@nv_objects@@@std@@@std@@IAEXPAPAVNVComplexMeshPass@nv_objects@@IABQAV34@@Z 10012180 f i nvcomplexmesh.obj
 0001:000111b0       ?erase@?$_Tree@$$CBV?$basic_string@DU?$char_traits@D@std@@V?$allocator@D@2@@std@@U?$pair@$$CBV?$basic_string@DU?$char_traits@D@std@@V?$allocator@D@2@@std@@VNVComplexMeshVertexData@nv_objects@@@2@U_Kfn@?$map@$$CBV?$basic_string@DU?$char_traits@D@std@@V?$allocator@D@2@@std@@VNVComplexMeshVertexData@nv_objects@@U?$less@$$CBV?$basic_string@DU?$char_traits@D@std@@V?$allocator@D@2@@std@@@2@V?$allocator@VNVComplexMeshVertexData@nv_objects@@@2@@2@U?$less@$$CBV?$basic_string@DU?$char_traits@D@std@@V?$allocator@D@2@@std@@@2@V?$allocator@VNVComplexMeshVertexData@nv_objects@@@2@@std@@QAE?AViterator@12@V312@@Z 100121b0 f i nvcomplexmesh.obj
 0001:00011590       ?_Erase@?$_Tree@$$CBV?$basic_string@DU?$char_traits@D@std@@V?$allocator@D@2@@std@@U?$pair@$$CBV?$basic_string@DU?$char_traits@D@std@@V?$allocator@D@2@@std@@VNVComplexMeshVertexData@nv_objects@@@2@U_Kfn@?$map@$$CBV?$basic_string@DU?$char_traits@D@std@@V?$allocator@D@2@@std@@VNVComplexMeshVertexData@nv_objects@@U?$less@$$CBV?$basic_string@DU?$char_traits@D@std@@V?$allocator@D@2@@std@@@2@V?$allocator@VNVComplexMeshVertexData@nv_objects@@@2@@2@U?$less@$$CBV?$basic_string@DU?$char_traits@D@std@@V?$allocator@D@2@@std@@@2@V?$allocator@VNVComplexMeshVertexData@nv_objects@@@2@@std@@IAEXPAU_Node@12@@Z 10012590 f i nvcomplexmesh.obj
 0001:000115e0       ?_Insert@?$_Tree@$$CBV?$basic_string@DU?$char_traits@D@std@@V?$allocator@D@2@@std@@U?$pair@$$CBV?$basic_string@DU?$char_traits@D@std@@V?$allocator@D@2@@std@@VNVComplexMeshVertexData@nv_objects@@@2@U_Kfn@?$map@$$CBV?$basic_string@DU?$char_traits@D@std@@V?$allocator@D@2@@std@@VNVComplexMeshVertexData@nv_objects@@U?$less@$$CBV?$basic_string@DU?$char_traits@D@std@@V?$allocator@D@2@@std@@@2@V?$allocator@VNVComplexMeshVertexData@nv_objects@@@2@@2@U?$less@$$CBV?$basic_string@DU?$char_traits@D@std@@V?$allocator@D@2@@std@@@2@V?$allocator@VNVComplexMeshVertexData@nv_objects@@@2@@std@@IAE?AViterator@12@PAU_Node@12@0ABU?$pair@$$CBV?$basic_string@DU?$char_traits@D@std@@V?$allocator@D@2@@std@@VNVComplexMeshVertexData@nv_objects@@@2@@Z 100125e0 f i nvcomplexmesh.obj
 0001:00011850       ?_Inc@const_iterator@?$_Tree@$$CBV?$basic_string@DU?$char_traits@D@std@@V?$allocator@D@2@@std@@U?$pair@$$CBV?$basic_string@DU?$char_traits@D@std@@V?$allocator@D@2@@std@@VNVComplexMeshVertexData@nv_objects@@@2@U_Kfn@?$map@$$CBV?$basic_string@DU?$char_traits@D@std@@V?$allocator@D@2@@std@@VNVComplexMeshVertexData@nv_objects@@U?$less@$$CBV?$basic_string@DU?$char_traits@D@std@@V?$allocator@D@2@@std@@@2@V?$allocator@VNVComplexMeshVertexData@nv_objects@@@2@@2@U?$less@$$CBV?$basic_string@DU?$char_traits@D@std@@V?$allocator@D@2@@std@@@2@V?$allocator@VNVComplexMeshVertexData@nv_objects@@@2@@std@@QAEXXZ 10012850 f i nvcomplexmesh.obj
 0001:000118a0       ?insert@?$vector@PAUIDirect3DIndexBuffer8@@V?$allocator@PAUIDirect3DIndexBuffer8@@@std@@@std@@QAEXPAPAUIDirect3DIndexBuffer8@@IABQAU3@@Z 100128a0 f i nvcomplexmesh.obj
 0001:00011ab0       ?erase@?$_Tree@KU?$pair@$$CBKK@std@@U_Kfn@?$map@KKU?$less@K@std@@V?$allocator@K@2@@2@U?$less@K@2@V?$allocator@K@2@@std@@QAE?AViterator@12@V312@@Z 10012ab0 f i nvcomplexmesh.obj
 0001:00011e80       ?_Erase@?$_Tree@KU?$pair@$$CBKK@std@@U_Kfn@?$map@KKU?$less@K@std@@V?$allocator@K@2@@2@U?$less@K@2@V?$allocator@K@2@@std@@IAEXPAU_Node@12@@Z 10012e80 f i nvcomplexmesh.obj
 0001:00011ec0       ?_Init@?$_Tree@KU?$pair@$$CBKK@std@@U_Kfn@?$map@KKU?$less@K@std@@V?$allocator@K@2@@2@U?$less@K@2@V?$allocator@K@2@@std@@IAEXXZ 10012ec0 f i nvcomplexmesh.obj
 0001:00011f60       ?_Insert@?$_Tree@KU?$pair@$$CBKK@std@@U_Kfn@?$map@KKU?$less@K@std@@V?$allocator@K@2@@2@U?$less@K@2@V?$allocator@K@2@@std@@IAE?AViterator@12@PAU_Node@12@0ABU?$pair@$$CBKK@2@@Z 10012f60 f i nvcomplexmesh.obj
 0001:000121d0       ??0?$pair@Viterator@?$_Tree@KU?$pair@$$CBKPAVNVBaseResource@nv_objects@@@std@@U_Kfn@?$map@KPAVNVBaseResource@nv_objects@@U?$less@K@std@@V?$allocator@PAVNVBaseResource@nv_objects@@@4@@2@U?$less@K@2@V?$allocator@PAVNVBaseResource@nv_objects@@@2@@std@@_N@std@@QAE@ABViterator@?$_Tree@KU?$pair@$$CBKPAVNVBaseResource@nv_objects@@@std@@U_Kfn@?$map@KPAVNVBaseResource@nv_objects@@U?$less@K@std@@V?$allocator@PAVNVBaseResource@nv_objects@@@4@@2@U?$less@K@2@V?$allocator@PAVNVBaseResource@nv_objects@@@2@@1@AB_N@Z 100131d0 f i nvcomplexmesh.obj
 0001:000121f0       ?_Insert@?$_Tree@KU?$pair@$$CBKPAVNVBaseResource@nv_objects@@@std@@U_Kfn@?$map@KPAVNVBaseResource@nv_objects@@U?$less@K@std@@V?$allocator@PAVNVBaseResource@nv_objects@@@4@@2@U?$less@K@2@V?$allocator@PAVNVBaseResource@nv_objects@@@2@@std@@IAE?AViterator@12@PAU_Node@12@0ABU?$pair@$$CBKPAVNVBaseResource@nv_objects@@@2@@Z 100131f0 f i nvcomplexmesh.obj
 0001:00012460       ?_Lrotate@?$_Tree@KKU_Kfn@?$set@KU?$less@K@std@@V?$allocator@K@2@@std@@U?$less@K@3@V?$allocator@K@3@@std@@IAEXPAU_Node@12@@Z 10013460 f i nvcomplexmesh.obj
 0001:000124c0       ?_Rrotate@?$_Tree@KKU_Kfn@?$set@KU?$less@K@std@@V?$allocator@K@2@@std@@U?$less@K@3@V?$allocator@K@3@@std@@IAEXPAU_Node@12@@Z 100134c0 f i nvcomplexmesh.obj
 0001:00012520       ?_Buynode@?$_Tree@KKU_Kfn@?$set@KU?$less@K@std@@V?$allocator@K@2@@std@@U?$less@K@3@V?$allocator@K@3@@std@@IAEPAU_Node@12@PAU312@W4_Redbl@12@@Z 10013520 f i nvcomplexmesh.obj
 0001:00012540       ?_Dec@const_iterator@?$_Tree@KKU_Kfn@?$set@KU?$less@K@std@@V?$allocator@K@2@@std@@U?$less@K@3@V?$allocator@K@3@@std@@QAEXXZ 10013540 f i nvcomplexmesh.obj
 0001:000125a0       ?_Lbound@?$_Tree@$$CBV?$basic_string@DU?$char_traits@D@std@@V?$allocator@D@2@@std@@U?$pair@$$CBV?$basic_string@DU?$char_traits@D@std@@V?$allocator@D@2@@std@@VNVConstant@nv_objects@@@2@U_Kfn@?$map@$$CBV?$basic_string@DU?$char_traits@D@std@@V?$allocator@D@2@@std@@VNVConstant@nv_objects@@U?$less@$$CBV?$basic_string@DU?$char_traits@D@std@@V?$allocator@D@2@@std@@@2@V?$allocator@VNVConstant@nv_objects@@@2@@2@U?$less@$$CBV?$basic_string@DU?$char_traits@D@std@@V?$allocator@D@2@@std@@@2@V?$allocator@VNVConstant@nv_objects@@@2@@std@@IBEPAU_Node@12@ABV?$basic_string@DU?$char_traits@D@std@@V?$allocator@D@2@@2@@Z 100135a0 f i nvcomplexmesh.obj
 0001:000125f0       ?_Dec@const_iterator@?$_Tree@$$CBV?$basic_string@DU?$char_traits@D@std@@V?$allocator@D@2@@std@@U?$pair@$$CBV?$basic_string@DU?$char_traits@D@std@@V?$allocator@D@2@@std@@VNVConstant@nv_objects@@@2@U_Kfn@?$map@$$CBV?$basic_string@DU?$char_traits@D@std@@V?$allocator@D@2@@std@@VNVConstant@nv_objects@@U?$less@$$CBV?$basic_string@DU?$char_traits@D@std@@V?$allocator@D@2@@std@@@2@V?$allocator@VNVConstant@nv_objects@@@2@@2@U?$less@$$CBV?$basic_string@DU?$char_traits@D@std@@V?$allocator@D@2@@std@@@2@V?$allocator@VNVConstant@nv_objects@@@2@@std@@QAEXXZ 100135f0 f i nvcomplexmesh.obj
 0001:00012650       ?_Lrotate@?$_Tree@W4_D3DRENDERSTATETYPE@@U?$pair@$$CBW4_D3DRENDERSTATETYPE@@VNVRenderState@nv_objects@@@std@@U_Kfn@?$map@W4_D3DRENDERSTATETYPE@@VNVRenderState@nv_objects@@U?$less@W4_D3DRENDERSTATETYPE@@@std@@V?$allocator@VNVRenderState@nv_objects@@@5@@3@U?$less@W4_D3DRENDERSTATETYPE@@@3@V?$allocator@VNVRenderState@nv_objects@@@3@@std@@IAEXPAU_Node@12@@Z 10013650 f i nvcomplexmesh.obj
 0001:000126b0       ?_Rrotate@?$_Tree@W4_D3DRENDERSTATETYPE@@U?$pair@$$CBW4_D3DRENDERSTATETYPE@@VNVRenderState@nv_objects@@@std@@U_Kfn@?$map@W4_D3DRENDERSTATETYPE@@VNVRenderState@nv_objects@@U?$less@W4_D3DRENDERSTATETYPE@@@std@@V?$allocator@VNVRenderState@nv_objects@@@5@@3@U?$less@W4_D3DRENDERSTATETYPE@@@3@V?$allocator@VNVRenderState@nv_objects@@@3@@std@@IAEXPAU_Node@12@@Z 100136b0 f i nvcomplexmesh.obj
 0001:00012710       ?_Lbound@?$_Tree@$$CBV?$basic_string@DU?$char_traits@D@std@@V?$allocator@D@2@@std@@U?$pair@$$CBV?$basic_string@DU?$char_traits@D@std@@V?$allocator@D@2@@std@@VNVComplexMeshVertexData@nv_objects@@@2@U_Kfn@?$map@$$CBV?$basic_string@DU?$char_traits@D@std@@V?$allocator@D@2@@std@@VNVComplexMeshVertexData@nv_objects@@U?$less@$$CBV?$basic_string@DU?$char_traits@D@std@@V?$allocator@D@2@@std@@@2@V?$allocator@VNVComplexMeshVertexData@nv_objects@@@2@@2@U?$less@$$CBV?$basic_string@DU?$char_traits@D@std@@V?$allocator@D@2@@std@@@2@V?$allocator@VNVComplexMeshVertexData@nv_objects@@@2@@std@@IBEPAU_Node@12@ABV?$basic_string@DU?$char_traits@D@std@@V?$allocator@D@2@@2@@Z 10013710 f i nvcomplexmesh.obj
 0001:00012760       ?_Lrotate@?$_Tree@$$CBV?$basic_string@DU?$char_traits@D@std@@V?$allocator@D@2@@std@@U?$pair@$$CBV?$basic_string@DU?$char_traits@D@std@@V?$allocator@D@2@@std@@VNVComplexMeshVertexData@nv_objects@@@2@U_Kfn@?$map@$$CBV?$basic_string@DU?$char_traits@D@std@@V?$allocator@D@2@@std@@VNVComplexMeshVertexData@nv_objects@@U?$less@$$CBV?$basic_string@DU?$char_traits@D@std@@V?$allocator@D@2@@std@@@2@V?$allocator@VNVComplexMeshVertexData@nv_objects@@@2@@2@U?$less@$$CBV?$basic_string@DU?$char_traits@D@std@@V?$allocator@D@2@@std@@@2@V?$allocator@VNVComplexMeshVertexData@nv_objects@@@2@@std@@IAEXPAU_Node@12@@Z 10013760 f i nvcomplexmesh.obj
 0001:000127c0       ?_Min@?$_Tree@$$CBV?$basic_string@DU?$char_traits@D@std@@V?$allocator@D@2@@std@@U?$pair@$$CBV?$basic_string@DU?$char_traits@D@std@@V?$allocator@D@2@@std@@VNVComplexMeshVertexData@nv_objects@@@2@U_Kfn@?$map@$$CBV?$basic_string@DU?$char_traits@D@std@@V?$allocator@D@2@@std@@VNVComplexMeshVertexData@nv_objects@@U?$less@$$CBV?$basic_string@DU?$char_traits@D@std@@V?$allocator@D@2@@std@@@2@V?$allocator@VNVComplexMeshVertexData@nv_objects@@@2@@2@U?$less@$$CBV?$basic_string@DU?$char_traits@D@std@@V?$allocator@D@2@@std@@@2@V?$allocator@VNVComplexMeshVertexData@nv_objects@@@2@@std@@KAPAU_Node@12@PAU312@@Z 100137c0 f i nvcomplexmesh.obj
 0001:000127e0       ?_Rrotate@?$_Tree@$$CBV?$basic_string@DU?$char_traits@D@std@@V?$allocator@D@2@@std@@U?$pair@$$CBV?$basic_string@DU?$char_traits@D@std@@V?$allocator@D@2@@std@@VNVComplexMeshVertexData@nv_objects@@@2@U_Kfn@?$map@$$CBV?$basic_string@DU?$char_traits@D@std@@V?$allocator@D@2@@std@@VNVComplexMeshVertexData@nv_objects@@U?$less@$$CBV?$basic_string@DU?$char_traits@D@std@@V?$allocator@D@2@@std@@@2@V?$allocator@VNVComplexMeshVertexData@nv_objects@@@2@@2@U?$less@$$CBV?$basic_string@DU?$char_traits@D@std@@V?$allocator@D@2@@std@@@2@V?$allocator@VNVComplexMeshVertexData@nv_objects@@@2@@std@@IAEXPAU_Node@12@@Z 100137e0 f i nvcomplexmesh.obj
 0001:00012840       ?_Buynode@?$_Tree@$$CBV?$basic_string@DU?$char_traits@D@std@@V?$allocator@D@2@@std@@U?$pair@$$CBV?$basic_string@DU?$char_traits@D@std@@V?$allocator@D@2@@std@@VNVComplexMeshVertexData@nv_objects@@@2@U_Kfn@?$map@$$CBV?$basic_string@DU?$char_traits@D@std@@V?$allocator@D@2@@std@@VNVComplexMeshVertexData@nv_objects@@U?$less@$$CBV?$basic_string@DU?$char_traits@D@std@@V?$allocator@D@2@@std@@@2@V?$allocator@VNVComplexMeshVertexData@nv_objects@@@2@@2@U?$less@$$CBV?$basic_string@DU?$char_traits@D@std@@V?$allocator@D@2@@std@@@2@V?$allocator@VNVComplexMeshVertexData@nv_objects@@@2@@std@@IAEPAU_Node@12@PAU312@W4_Redbl@12@@Z 10013840 f i nvcomplexmesh.obj
 0001:00012860       ?_Dec@const_iterator@?$_Tree@$$CBV?$basic_string@DU?$char_traits@D@std@@V?$allocator@D@2@@std@@U?$pair@$$CBV?$basic_string@DU?$char_traits@D@std@@V?$allocator@D@2@@std@@VNVComplexMeshVertexData@nv_objects@@@2@U_Kfn@?$map@$$CBV?$basic_string@DU?$char_traits@D@std@@V?$allocator@D@2@@std@@VNVComplexMeshVertexData@nv_objects@@U?$less@$$CBV?$basic_string@DU?$char_traits@D@std@@V?$allocator@D@2@@std@@@2@V?$allocator@VNVComplexMeshVertexData@nv_objects@@@2@@2@U?$less@$$CBV?$basic_string@DU?$char_traits@D@std@@V?$allocator@D@2@@std@@@2@V?$allocator@VNVComplexMeshVertexData@nv_objects@@@2@@std@@QAEXXZ 10013860 f i nvcomplexmesh.obj
 0001:000128c0       ?_Lrotate@?$_Tree@KU?$pair@$$CBKK@std@@U_Kfn@?$map@KKU?$less@K@std@@V?$allocator@K@2@@2@U?$less@K@2@V?$allocator@K@2@@std@@IAEXPAU_Node@12@@Z 100138c0 f i nvcomplexmesh.obj
 0001:00012920       ?_Rrotate@?$_Tree@KU?$pair@$$CBKK@std@@U_Kfn@?$map@KKU?$less@K@std@@V?$allocator@K@2@@2@U?$less@K@2@V?$allocator@K@2@@std@@IAEXPAU_Node@12@@Z 10013920 f i nvcomplexmesh.obj
 0001:00012980       ?_Buynode@?$_Tree@KU?$pair@$$CBKK@std@@U_Kfn@?$map@KKU?$less@K@std@@V?$allocator@K@2@@2@U?$less@K@2@V?$allocator@K@2@@std@@IAEPAU_Node@12@PAU312@W4_Redbl@12@@Z 10013980 f i nvcomplexmesh.obj
 0001:000129a0       ?_Dec@const_iterator@?$_Tree@KU?$pair@$$CBKK@std@@U_Kfn@?$map@KKU?$less@K@std@@V?$allocator@K@2@@2@U?$less@K@2@V?$allocator@K@2@@std@@QAEXXZ 100139a0 f i nvcomplexmesh.obj
 0001:00012a00       ?size@?$vector@PAVNVComplexMeshVertexData@nv_objects@@V?$allocator@PAVNVComplexMeshVertexData@nv_objects@@@std@@@std@@QBEIXZ 10013a00 f i nvcomplexmesh.obj
 0001:00012a20       ?_Ucopy@?$vector@PAVNVComplexMeshVertexData@nv_objects@@V?$allocator@PAVNVComplexMeshVertexData@nv_objects@@@std@@@std@@IAEPAPAVNVComplexMeshVertexData@nv_objects@@PBQAV34@0PAPAV34@@Z 10013a20 f i nvcomplexmesh.obj
 0001:00012a50       ?_Ufill@?$vector@PAVNVComplexMeshVertexData@nv_objects@@V?$allocator@PAVNVComplexMeshVertexData@nv_objects@@@std@@@std@@IAEXPAPAVNVComplexMeshVertexData@nv_objects@@IABQAV34@@Z 10013a50 f i nvcomplexmesh.obj
 0001:00012a80       ?_Dec@const_iterator@?$_Tree@KU?$pair@$$CBKPAVNVBaseResource@nv_objects@@@std@@U_Kfn@?$map@KPAVNVBaseResource@nv_objects@@U?$less@K@std@@V?$allocator@PAVNVBaseResource@nv_objects@@@4@@2@U?$less@K@2@V?$allocator@PAVNVBaseResource@nv_objects@@@2@@std@@QAEXXZ 10013a80 f i nvcomplexmesh.obj
 0001:00012ae0       ?_Inc@const_iterator@?$_Tree@KU?$pair@$$CBKK@std@@U_Kfn@?$map@KKU?$less@K@std@@V?$allocator@K@2@@2@U?$less@K@2@V?$allocator@K@2@@std@@QAEXXZ 10013ae0 f i nvcomplexmesh.obj
 0001:00012b30       ?copy@std@@YAPAUD3DXVECTOR3@@PAU2@00@Z 10013b30 f i nvcomplexmesh.obj
 0001:00012b70       ?copy@std@@YAPAPAVNVComplexMeshPass@nv_objects@@PAPAV23@00@Z 10013b70 f i nvcomplexmesh.obj
 0001:00012ba0       ?_Construct@std@@YAXPAUD3DXVECTOR3@@ABU2@@Z 10013ba0 f i nvcomplexmesh.obj
 0001:00012bc0       ?_Construct@std@@YAXPAU?$pair@$$CBV?$basic_string@DU?$char_traits@D@std@@V?$allocator@D@2@@std@@VNVConstant@nv_objects@@@1@ABU21@@Z 10013bc0 f i nvcomplexmesh.obj
 0001:00012d30       ??3@YAXPAX0@Z              10013d30 f i nvcomplexmesh.obj
 0001:00012d40       ?_Construct@std@@YAXPAPAVNVComplexMeshPass@nv_objects@@ABQAV23@@Z 10013d40 f i nvcomplexmesh.obj
 0001:00012d60       ?_Construct@std@@YAXPAU?$pair@$$CBV?$basic_string@DU?$char_traits@D@std@@V?$allocator@D@2@@std@@VNVComplexMeshVertexData@nv_objects@@@1@ABU21@@Z 10013d60 f i nvcomplexmesh.obj
 0001:00012ee0       ?_Construct@std@@YAXPAU?$pair@$$CBKK@1@ABU21@@Z 10013ee0 f i nvcomplexmesh.obj
 0001:00012f00       ?_Construct@std@@YAXPAU?$pair@$$CBKPAVNVBaseResource@nv_objects@@@1@ABU21@@Z 10013f00 f i nvcomplexmesh.obj
 0001:00012f20       ?_Construct@std@@YAXPAPAVNVComplexMeshVertexData@nv_objects@@ABQAV23@@Z 10013f20 f i nvcomplexmesh.obj
 0001:00012f40       ??_G?$pair@$$CBV?$basic_string@DU?$char_traits@D@std@@V?$allocator@D@2@@std@@VNVConstant@nv_objects@@@std@@QAEPAXI@Z 10013f40 f i nvcomplexmesh.obj
 0001:00012f60       ??_G?$pair@$$CBV?$basic_string@DU?$char_traits@D@std@@V?$allocator@D@2@@std@@VNVComplexMeshVertexData@nv_objects@@@std@@QAEPAXI@Z 10013f60 f i nvcomplexmesh.obj
 0001:00012f80       ?_Sort_0@std@@YAXPAPAVNVComplexMeshVertexData@nv_objects@@0VDataSorter@3@0@Z 10013f80 f i nvcomplexmesh.obj
 0001:000131e0       ??RDataSorter@nv_objects@@QBE_NPBVNVComplexMeshVertexData@1@0@Z 100141e0 f i nvcomplexmesh.obj
 0001:00013200       ?_Sort@std@@YAXPAPAVNVComplexMeshVertexData@nv_objects@@0VDataSorter@3@0@Z 10014200 f i nvcomplexmesh.obj
 0001:000132f0       ?_Unguarded_partition@std@@YAPAPAVNVComplexMeshVertexData@nv_objects@@PAPAV23@0PAV23@VDataSorter@3@@Z 100142f0 f i nvcomplexmesh.obj
 0001:00013330       ??0NVComplexMeshPass@nv_objects@@QAE@PAVNVComplexMesh@1@@Z 10014330 f   nvcomplexmeshpass.obj
 0001:00013370       ??_ENVComplexMeshPass@nv_objects@@UAEPAXI@Z 10014370 f i nvcomplexmeshpass.obj
 0001:00013370       ??_GNVComplexMeshPass@nv_objects@@UAEPAXI@Z 10014370 f i nvcomplexmeshpass.obj
 0001:00013390       ??0NVComplexMeshPass@nv_objects@@QAE@ABV01@@Z 10014390 f   nvcomplexmeshpass.obj
 0001:00013440       ??1NVComplexMeshPass@nv_objects@@UAE@XZ 10014440 f   nvcomplexmeshpass.obj
 0001:000134d0       ?Release@NVComplexMeshPass@nv_objects@@UAEXXZ 100144d0 f   nvcomplexmeshpass.obj
 0001:00013510       ?Render@NVComplexMeshPass@nv_objects@@UAE_NPAUIDirect3DDevice8@@@Z 10014510 f   nvcomplexmeshpass.obj
 0001:00013750       ?RenderSection@NVComplexMeshPass@nv_objects@@UAE_NPAUIDirect3DDevice8@@Vconst_iterator@?$list@VNVComplexMeshSection@nv_objects@@V?$allocator@VNVComplexMeshSection@nv_objects@@@std@@@std@@@Z 10014750 f   nvcomplexmeshpass.obj
 0001:00013a80       ??Econst_iterator@?$_Tree@W4_D3DTEXTURESTAGESTATETYPE@@U?$pair@$$CBW4_D3DTEXTURESTAGESTATETYPE@@VNVTextureStageState@nv_objects@@@std@@U_Kfn@?$map@W4_D3DTEXTURESTAGESTATETYPE@@VNVTextureStageState@nv_objects@@U?$less@W4_D3DTEXTURESTAGESTATETYPE@@@std@@V?$allocator@VNVTextureStageState@nv_objects@@@5@@3@U?$less@W4_D3DTEXTURESTAGESTATETYPE@@@3@V?$allocator@VNVTextureStageState@nv_objects@@@3@@std@@QAE?AV012@H@Z 10014a80 f i nvcomplexmeshpass.obj
 0001:00013ae0       ??Econst_iterator@?$_Tree@W4_D3DRENDERSTATETYPE@@U?$pair@$$CBW4_D3DRENDERSTATETYPE@@VNVRenderState@nv_objects@@@std@@U_Kfn@?$map@W4_D3DRENDERSTATETYPE@@VNVRenderState@nv_objects@@U?$less@W4_D3DRENDERSTATETYPE@@@std@@V?$allocator@VNVRenderState@nv_objects@@@5@@3@U?$less@W4_D3DRENDERSTATETYPE@@@3@V?$allocator@VNVRenderState@nv_objects@@@3@@std@@QAE?AV012@H@Z 10014ae0 f i nvcomplexmeshpass.obj
 0001:00013b40       ??1?$list@VNVComplexMeshSection@nv_objects@@V?$allocator@VNVComplexMeshSection@nv_objects@@@std@@@std@@QAE@XZ 10014b40 f i nvcomplexmeshpass.obj
 0001:00013b90       ??0NVStateID@nv_objects@@QAE@W4eStateType@1@KK@Z 10014b90 f i nvcomplexmeshpass.obj
 0001:00013bb0       ?FlushState@NVStateManager@nv_objects@@QAEXXZ 10014bb0 f i nvcomplexmeshpass.obj
 0001:000140b0       ?insert@?$vector@VNVStateID@nv_objects@@V?$allocator@VNVStateID@nv_objects@@@std@@@std@@QAEPAVNVStateID@nv_objects@@PAV34@ABV34@@Z 100150b0 f i nvcomplexmeshpass.obj
 0001:000142d0       ?_Destroy@?$vector@VNVStateID@nv_objects@@V?$allocator@VNVStateID@nv_objects@@@std@@@std@@IAEXPAVNVStateID@nv_objects@@0@Z 100152d0 f i nvcomplexmeshpass.obj
 0001:000142e0       ?GetTexture@NVTextureResource@nv_objects@@SAPAUIDirect3DBaseTexture8@@K@Z 100152e0 f i nvcomplexmeshpass.obj
 0001:00014360       ?RestoreMaterial@NVMaterialResource@nv_objects@@QAE_NXZ 10015360 f i nvcomplexmeshpass.obj
 0001:00014490       ?GetSections@NVComplexMeshPass@nv_objects@@UAEAAV?$list@VNVComplexMeshSection@nv_objects@@V?$allocator@VNVComplexMeshSection@nv_objects@@@std@@@std@@XZ 10015490 f i nvcomplexmeshpass.obj
 0001:000144a0       ?size@?$vector@VNVStateID@nv_objects@@V?$allocator@VNVStateID@nv_objects@@@std@@@std@@QBEIXZ 100154a0 f i nvcomplexmeshpass.obj
 0001:000144c0       ?_Ucopy@?$vector@VNVStateID@nv_objects@@V?$allocator@VNVStateID@nv_objects@@@std@@@std@@IAEPAVNVStateID@nv_objects@@PBV34@0PAV34@@Z 100154c0 f i nvcomplexmeshpass.obj
 0001:00014510       ?_Ufill@?$vector@VNVStateID@nv_objects@@V?$allocator@VNVStateID@nv_objects@@@std@@@std@@IAEXPAVNVStateID@nv_objects@@IABV34@@Z 10015510 f i nvcomplexmeshpass.obj
 0001:00014550       ?_Construct@std@@YAXPAVNVStateID@nv_objects@@ABV23@@Z 10015550 f i nvcomplexmeshpass.obj
 0001:000146c0       _DllMain@12                100156c0 f   shader_LinkerDemo.obj
 0001:00014860       _GetNumEffects             10015860 f   shader_LinkerDemo.obj
 0001:00014870       _CreateEffect              10015870 f   shader_LinkerDemo.obj
 0001:000148d0       ??0CShaderLinkerDemo@@QAE@XZ 100158d0 f   shader_LinkerDemo.obj
 0001:00014de0       ??_ECShaderLinkerDemo@@UAEPAXI@Z 10015de0 f i shader_LinkerDemo.obj
 0001:00014de0       ??_GCShaderLinkerDemo@@UAEPAXI@Z 10015de0 f i shader_LinkerDemo.obj
 0001:00014e00       ??_F?$map@VCLinkerConstantSlot@@KU?$less@VCLinkerConstantSlot@@@std@@V?$allocator@K@3@@std@@QAEXXZ 10015e00 f i shader_LinkerDemo.obj
 0001:00014e20       ??1?$map@VCLinkerConstantSlot@@KU?$less@VCLinkerConstantSlot@@@std@@V?$allocator@K@3@@std@@QAE@XZ 10015e20 f i shader_LinkerDemo.obj
 0001:00014f10       ??1CShaderLinkerDemo@@UAE@XZ 10015f10 f   shader_LinkerDemo.obj
 0001:00015110       ?UpdateProperties@CShaderLinkerDemo@@UAEXXZ 10016110 f   shader_LinkerDemo.obj
 0001:000166c0       ?ConfirmDevice@CShaderLinkerDemo@@UAEJPAU_D3DCAPS8@@KW4_D3DFORMAT@@@Z 100176c0 f   shader_LinkerDemo.obj
 0001:000166f0       ?CreateCubeEnvironment@CShaderLinkerDemo@@AAEJXZ 100176f0 f   shader_LinkerDemo.obj
 0001:00017250       ?LoadFragmentFile@CShaderLinkerDemo@@AAEJABV?$basic_string@DU?$char_traits@D@std@@V?$allocator@D@2@@std@@@Z 10018250 f   shader_LinkerDemo.obj
 0001:00017490       ?Initialize@CShaderLinkerDemo@@UAEJPAUIDirect3DDevice8@@@Z 10018490 f   shader_LinkerDemo.obj
 0001:00019450       ??0D3DXVECTOR4@@QAE@XZ     1001a450 f i shader_LinkerDemo.obj
 0001:00019460       ??0D3DXMATRIX@@QAE@XZ      1001a460 f i shader_LinkerDemo.obj
 0001:00019470       ?UpdateMeshVertexSlots@CShaderLinkerDemo@@AAEXXZ 1001a470 f   shader_LinkerDemo.obj
 0001:00019e60       ?UpdateShader@CShaderLinkerDemo@@AAEJXZ 1001ae60 f   shader_LinkerDemo.obj
 0001:0001c230       ?D3DXMatrixIdentity@@YAPAUD3DXMATRIX@@PAU1@@Z 1001d230 f i shader_LinkerDemo.obj
 0001:0001c270       ?LoadMesh@CShaderLinkerDemo@@AAEJABV?$basic_string@DU?$char_traits@D@std@@V?$allocator@D@2@@std@@@Z 1001d270 f   shader_LinkerDemo.obj
 0001:0001ca80       ?PropertyUpdateCallback@CShaderLinkerDemo@@UAEXPBVEBProperty@@_N@Z 1001da80 f   shader_LinkerDemo.obj
 0001:0001cf70       ?Free@CShaderLinkerDemo@@UAEJXZ 1001df70 f   shader_LinkerDemo.obj
 0001:0001d2f0       ?Start@CShaderLinkerDemo@@UAEJXZ 1001e2f0 f   shader_LinkerDemo.obj
 0001:0001d300       ?DrawCubeEnvironment@CShaderLinkerDemo@@AAEJXZ 1001e300 f   shader_LinkerDemo.obj
 0001:0001d5f0       ?ConditionalSetConstant@CShaderLinkerDemo@@AAEXKW4eTagConstantNames@@JPBX@Z 1001e5f0 f   shader_LinkerDemo.obj
 0001:0001d680       ?Tick@CShaderLinkerDemo@@UAEJPAVEBTimer@@@Z 1001e680 f   shader_LinkerDemo.obj
 0001:0001ec20       ?MouseButton@CShaderLinkerDemo@@UAEXPAUHWND__@@W4tagButtonID@@_NHH@Z 1001fc20 f   shader_LinkerDemo.obj
 0001:0001ec80       ?MouseMove@CShaderLinkerDemo@@UAEXPAUHWND__@@HH@Z 1001fc80 f   shader_LinkerDemo.obj
 0001:0001ecb0       ?Keyboard@CShaderLinkerDemo@@UAEXKI_N@Z 1001fcb0 f   shader_LinkerDemo.obj
 0001:0001eeb0       ??0EBValue@@QAE@ABV?$basic_string@DU?$char_traits@D@std@@V?$allocator@D@2@@std@@@Z 1001feb0 f i shader_LinkerDemo.obj
 0001:0001ef10       ??0EBValue@@QAE@ABV0@@Z    1001ff10 f i shader_LinkerDemo.obj
 0001:0001ef90       ??0EBProperty@@QAE@ABV?$EBStr@D@@KW4tagEBPropertyType@@K@Z 1001ff90 f i shader_LinkerDemo.obj
 0001:0001f000       ??1EBProperty@@UAE@XZ      10020000 f i shader_LinkerDemo.obj
 0001:0001f040       ?IsKindOf@EBProperty@@UBE_NW4tagEBPropertyType@@@Z 10020040 f i shader_LinkerDemo.obj
 0001:0001f050       ?GetFlags@EBProperty@@UBEKXZ 10020050 f i shader_LinkerDemo.obj
 0001:0001f060       ?GetPropertyName@EBProperty@@UBE?BV?$EBStr@D@@XZ 10020060 f i shader_LinkerDemo.obj
 0001:0001f0c0       ?DiscardProperty@EBProperty@@UAEXXZ 100200c0 f i shader_LinkerDemo.obj
 0001:0001f0d0       ?GetOffset@EBProperty@@UBEKXZ 100200d0 f i shader_LinkerDemo.obj
 0001:0001f0e0       ??_EEBProperty@@UAEPAXI@Z  100200e0 f i shader_LinkerDemo.obj
 0001:0001f0e0       ??_GEBProperty@@UAEPAXI@Z  100200e0 f i shader_LinkerDemo.obj
 0001:0001f100       ??0EBPropertySet@@QAE@XZ   10020100 f i shader_LinkerDemo.obj
 0001:0001f290       ??1EBPropertySet@@UAE@XZ   10020290 f i shader_LinkerDemo.obj
 0001:0001f3d0       ?AddProperty@EBPropertySet@@UAE_NPAVEBProperty@@@Z 100203d0 f i shader_LinkerDemo.obj
 0001:0001f4a0       ?GetProperty@EBPropertySet@@UAEPAVEBProperty@@ABV?$EBStr@D@@@Z 100204a0 f i shader_LinkerDemo.obj
 0001:0001f510       ?PropertyUpdateCallback@EBPropertySet@@UAEXPBVEBProperty@@_N@Z 10020510 f i shader_LinkerDemo.obj
 0001:0001f520       ?UpdateProperties@EBPropertySet@@UAEXXZ 10020520 f i shader_LinkerDemo.obj
 0001:0001f530       ?DiscardProperties@EBPropertySet@@UAEXXZ 10020530 f i shader_LinkerDemo.obj
 0001:0001f580       ?GetFirstProperty@EBPropertySet@@UAEPAVEBProperty@@XZ 10020580 f i shader_LinkerDemo.obj
 0001:0001f5a0       ?GetNextProperty@EBPropertySet@@UAEPAVEBProperty@@XZ 100205a0 f i shader_LinkerDemo.obj
 0001:0001f610       ?PropertyWritten@EBPropertySet@@UAEXPAVEBProperty@@@Z 10020610 f i shader_LinkerDemo.obj
 0001:0001f640       ?PropertyRead@EBPropertySet@@UAEXPAVEBProperty@@@Z 10020640 f i shader_LinkerDemo.obj
 0001:0001f670       ??_GEBPropertySet@@UAEPAXI@Z 10020670 f i shader_LinkerDemo.obj
 0001:0001f670       ??_EEBPropertySet@@UAEPAXI@Z 10020670 f i shader_LinkerDemo.obj
 0001:0001f690       ??1?$map@V?$EBStr@D@@PAVEBProperty@@U?$less@V?$EBStr@D@@@std@@V?$allocator@PAVEBProperty@@@4@@std@@QAE@XZ 10020690 f i shader_LinkerDemo.obj
 0001:0001f790       ??0EBEnumValue@@QAE@PAVEBEnumProperty@@ABV?$EBStr@D@@ABVEBValue@@W4tagEBPropertyType@@@Z 10020790 f i shader_LinkerDemo.obj
 0001:0001f890       ?WriteValue@EBEnumValue@@UAEXPAVEBPropertySet@@ABVEBValue@@@Z 10020890 f i shader_LinkerDemo.obj
 0001:0001f8a0       ?ReadValue@EBEnumValue@@UAE?AVEBValue@@PAVEBPropertySet@@@Z 100208a0 f i shader_LinkerDemo.obj
 0001:0001f8d0       ?GetValue@EBEnumValue@@UBE?AVEBValue@@XZ 100208d0 f i shader_LinkerDemo.obj
 0001:0001f950       ?GetParent@EBEnumValue@@UBEPAVEBEnumProperty@@XZ 10020950 f i shader_LinkerDemo.obj
 0001:0001f960       ??_EEBEnumValue@@UAEPAXI@Z 10020960 f i shader_LinkerDemo.obj
 0001:0001f960       ??_GEBEnumValue@@UAEPAXI@Z 10020960 f i shader_LinkerDemo.obj
 0001:0001f980       ??1EBEnumValue@@UAE@XZ     10020980 f i shader_LinkerDemo.obj
 0001:0001f9f0       ?WriteValue@EBTriggerProperty@@UAEXPAVEBPropertySet@@ABVEBValue@@@Z 100209f0 f i shader_LinkerDemo.obj
 0001:0001fa00       ?ReadValue@EBTriggerProperty@@UAE?AVEBValue@@PAVEBPropertySet@@@Z 10020a00 f i shader_LinkerDemo.obj
 0001:0001fa30       ??_GEBTriggerProperty@@UAEPAXI@Z 10020a30 f i shader_LinkerDemo.obj
 0001:0001fa30       ??_EEBTriggerProperty@@UAEPAXI@Z 10020a30 f i shader_LinkerDemo.obj
 0001:0001fa50       ??1EBTriggerProperty@@UAE@XZ 10020a50 f i shader_LinkerDemo.obj
 0001:0001fa90       ??0EBEnumProperty@@QAE@ABV?$EBStr@D@@KW4tagEBPropertyType@@K@Z 10020a90 f i shader_LinkerDemo.obj
 0001:0001fb60       ?WriteValue@EBEnumProperty@@UAEXPAVEBPropertySet@@ABVEBValue@@@Z 10020b60 f i shader_LinkerDemo.obj
 0001:0001fc60       ?ReadValue@EBEnumProperty@@UAE?AVEBValue@@PAVEBPropertySet@@@Z 10020c60 f i shader_LinkerDemo.obj
 0001:0001fd70       ?AddEnumerant@EBEnumProperty@@UAE_NPAVEBEnumValue@@@Z 10020d70 f i shader_LinkerDemo.obj
 0001:0001fdc0       ?DiscardProperty@EBEnumProperty@@UAEXXZ 10020dc0 f i shader_LinkerDemo.obj
 0001:0001fe20       ?GetEnumerants@EBEnumProperty@@UBEABV?$list@PAVEBEnumValue@@V?$allocator@PAVEBEnumValue@@@std@@@std@@XZ 10020e20 f i shader_LinkerDemo.obj
 0001:0001fe30       ??_GEBEnumProperty@@UAEPAXI@Z 10020e30 f i shader_LinkerDemo.obj
 0001:0001fe30       ??_EEBEnumProperty@@UAEPAXI@Z 10020e30 f i shader_LinkerDemo.obj
 0001:0001fe50       ??1EBEnumProperty@@UAE@XZ  10020e50 f i shader_LinkerDemo.obj
 0001:0001ffd0       ??0?$EBStr@D@@QAE@ABV0@@Z  10020fd0 f i shader_LinkerDemo.obj
 0001:00020020       ??0?$EBStr@D@@QAE@ABV?$basic_string@DU?$char_traits@D@std@@V?$allocator@D@2@@std@@@Z 10021020 f i shader_LinkerDemo.obj
 0001:00020070       ??0?$EBStr@D@@QAE@PBD@Z    10021070 f i shader_LinkerDemo.obj
 0001:000200c0       ??0?$EBStr@D@@QAE@XZ       100210c0 f i shader_LinkerDemo.obj
 0001:000200e0       ??1?$_Tree@V?$EBStr@D@@U?$pair@$$CBV?$EBStr@D@@PAVEBProperty@@@std@@U_Kfn@?$map@V?$EBStr@D@@PAVEBProperty@@U?$less@V?$EBStr@D@@@std@@V?$allocator@PAVEBProperty@@@4@@3@U?$less@V?$EBStr@D@@@3@V?$allocator@PAVEBProperty@@@3@@std@@QAE@XZ 100210e0 f i shader_LinkerDemo.obj
 0001:000201d0       ??0?$list@PAVEBEnumValue@@V?$allocator@PAVEBEnumValue@@@std@@@std@@QAE@ABV?$allocator@PAVEBEnumValue@@@1@@Z 100211d0 f i shader_LinkerDemo.obj
 0001:00020200       ??1?$list@PAVEBEnumValue@@V?$allocator@PAVEBEnumValue@@@std@@@std@@QAE@XZ 10021200 f i shader_LinkerDemo.obj
 0001:00020250       ?GetModulePath@effect_api@@YA?AV?$basic_string@DU?$char_traits@D@std@@V?$allocator@D@2@@std@@XZ 10021250 f i shader_LinkerDemo.obj
 0001:00020390       ??1EBEffect@@UAE@XZ        10021390 f i shader_LinkerDemo.obj
 0001:00020510       ?DestroyEffect@EBEffect@@UAEXXZ 10021510 f i shader_LinkerDemo.obj
 0001:00020520       ?API@EBEffect@@UBE?AW4tagEBGFXAPI@@XZ 10021520 f i shader_LinkerDemo.obj
 0001:00020530       ?ConfirmDevice@EBEffect@@UAEJPAU_D3DCAPS8@@KW4_D3DFORMAT@@@Z 10021530 f i shader_LinkerDemo.obj
 0001:00020540       ?Initialize@EBEffect@@UAEJPAUIDirect3DDevice8@@@Z 10021540 f i shader_LinkerDemo.obj
 0001:00020550       ?ConfirmDevice@EBEffect@@UAEJPAUtagPIXELFORMATDESCRIPTOR@@@Z 10021550 f i shader_LinkerDemo.obj
 0001:00020560       ?Initialize@EBEffect@@UAEJPAUHGLRC__@@@Z 10021560 f i shader_LinkerDemo.obj
 0001:00020570       ?MouseMove@EBEffect@@UAEXPAUHWND__@@HH@Z 10021570 f i shader_LinkerDemo.obj
 0001:00020580       ?MouseButton@EBEffect@@UAEXPAUHWND__@@W4tagButtonID@@_NHH@Z 10021580 f i shader_LinkerDemo.obj
 0001:00020590       ?Keyboard@EBEffect@@UAEXKI_N@Z 10021590 f i shader_LinkerDemo.obj
 0001:000205a0       ?Resize@EBEffect@@UAEXPAUHWND__@@HH_N@Z 100215a0 f i shader_LinkerDemo.obj
 0001:000205d0       ?UpdateProperties@EBEffect@@UAEXXZ 100215d0 f i shader_LinkerDemo.obj
 0001:00020ae0       ?LoadAndCreateShader@EBEffect@@UAEJABV?$basic_string@DU?$char_traits@D@std@@V?$allocator@D@2@@std@@PBKKW4tagEBSHADERTYPE@@PAK@Z 10021ae0 f i shader_LinkerDemo.obj
 0001:00020d80       ?GetFilePath@EBEffect@@UAE?AV?$basic_string@DU?$char_traits@D@std@@V?$allocator@D@2@@std@@ABV23@@Z 10021d80 f i shader_LinkerDemo.obj
 0001:00020db0       ?GetFilePath@effect_api@@YA?AV?$basic_string@DU?$char_traits@D@std@@V?$allocator@D@2@@std@@ABV23@@Z 10021db0 f i shader_LinkerDemo.obj
 0001:00021360       ?TranslateEffectKey@EBEffect@@UAE?AW4tagEBKeyAction@@KK_N@Z 10022360 f i shader_LinkerDemo.obj
 0001:00021530       ??_EEBEffect@@UAEPAXI@Z    10022530 f i shader_LinkerDemo.obj
 0001:00021530       ??_GEBEffect@@UAEPAXI@Z    10022530 f i shader_LinkerDemo.obj
 0001:00021550       ?SetLocation@MouseUI@@IAEXABI0@Z 10022550 f i shader_LinkerDemo.obj
 0001:000215a0       ?SetSize@MouseUI@@IAEXXZ   100225a0 f i shader_LinkerDemo.obj
 0001:000215d0       ?OnLButtonDown@MouseUI@@UAEXABI0@Z 100225d0 f i shader_LinkerDemo.obj
 0001:00021670       ?OnLButtonUp@MouseUI@@UAEXABI0@Z 10022670 f i shader_LinkerDemo.obj
 0001:000216d0       ?Translate@MouseUI@@UAEXABM00@Z 100226d0 f i shader_LinkerDemo.obj
 0001:00021710       ?Translate@MouseUI@@UAEXABUD3DXVECTOR3@@@Z 10022710 f i shader_LinkerDemo.obj
 0001:00021750       ?OnMouseMove@MouseUI@@UAEXABI0@Z 10022750 f i shader_LinkerDemo.obj
 0001:00021bb0       ?FindResourceID@NVResourceManager@nv_objects@@QAEKPBD@Z 10022bb0 f i shader_LinkerDemo.obj
 0001:00021cf0       ?FindResourceA@NVResourceManager@nv_objects@@QAEPAVNVBaseResource@2@PBD@Z 10022cf0 f i shader_LinkerDemo.obj
 0001:00021d80       ??1?$Singleton@VNVResourceManager@nv_objects@@@@UAE@XZ 10022d80 f i shader_LinkerDemo.obj
 0001:00021da0       ?GetSingleton@?$Singleton@VNVResourceManager@nv_objects@@@@SAAAVNVResourceManager@nv_objects@@XZ 10022da0 f i shader_LinkerDemo.obj
 0001:00021db0       ??_ENVResourceManager@nv_objects@@UAEPAXI@Z 10022db0 f i shader_LinkerDemo.obj
 0001:00021db0       ??_GNVResourceManager@nv_objects@@UAEPAXI@Z 10022db0 f i shader_LinkerDemo.obj
 0001:00021dd0       ??1NVResourceManager@nv_objects@@UAE@XZ 10022dd0 f i shader_LinkerDemo.obj
 0001:00022030       ?RemoveResource@NVResourceManager@nv_objects@@QAE_NK@Z 10023030 f i shader_LinkerDemo.obj
 0001:00022120       ??1?$map@KPAVNVBaseResource@nv_objects@@U?$less@K@std@@V?$allocator@PAVNVBaseResource@nv_objects@@@4@@std@@QAE@XZ 10023120 f i shader_LinkerDemo.obj
 0001:00022210       ??1?$map@V?$basic_string@DU?$char_traits@D@std@@V?$allocator@D@2@@std@@KU?$less@V?$basic_string@DU?$char_traits@D@std@@V?$allocator@D@2@@std@@@2@V?$allocator@K@2@@std@@QAE@XZ 10023210 f i shader_LinkerDemo.obj
 0001:00022310       ?erase@?$map@KPAVNVBaseResource@nv_objects@@U?$less@K@std@@V?$allocator@PAVNVBaseResource@nv_objects@@@4@@std@@QAE?AViterator@?$_Tree@KU?$pair@$$CBKPAVNVBaseResource@nv_objects@@@std@@U_Kfn@?$map@KPAVNVBaseResource@nv_objects@@U?$less@K@std@@V?$allocator@PAVNVBaseResource@nv_objects@@@4@@2@U?$less@K@2@V?$allocator@PAVNVBaseResource@nv_objects@@@2@@2@V342@@Z 10023310 f i shader_LinkerDemo.obj
 0001:00022330       ??1?$map@KV?$basic_string@DU?$char_traits@D@std@@V?$allocator@D@2@@std@@U?$less@K@2@V?$allocator@V?$basic_string@DU?$char_traits@D@std@@V?$allocator@D@2@@std@@@2@@std@@QAE@XZ 10023330 f i shader_LinkerDemo.obj
 0001:00022430       ??1?$set@KU?$less@K@std@@V?$allocator@K@2@@std@@QAE@XZ 10023430 f i shader_LinkerDemo.obj
 0001:00022520       ?find@?$map@KPAVNVBaseResource@nv_objects@@U?$less@K@std@@V?$allocator@PAVNVBaseResource@nv_objects@@@4@@std@@QAE?AViterator@?$_Tree@KU?$pair@$$CBKPAVNVBaseResource@nv_objects@@@std@@U_Kfn@?$map@KPAVNVBaseResource@nv_objects@@U?$less@K@std@@V?$allocator@PAVNVBaseResource@nv_objects@@@4@@2@U?$less@K@2@V?$allocator@PAVNVBaseResource@nv_objects@@@2@@2@ABK@Z 10023520 f i shader_LinkerDemo.obj
 0001:00022590       ??8NVStreamData@nv_objects@@QBE_NABV01@@Z 10023590 f i shader_LinkerDemo.obj
 0001:000225c0       ??8NVIndexData@nv_objects@@QBE_NABV01@@Z 100235c0 f i shader_LinkerDemo.obj
 0001:000225f0       ??0NVStateManagerState@nv_objects@@QAE@XZ 100235f0 f i shader_LinkerDemo.obj
 0001:00022620       ??0?$map@V?$basic_string@DU?$char_traits@D@std@@V?$allocator@D@2@@std@@KU?$less@V?$basic_string@DU?$char_traits@D@std@@V?$allocator@D@2@@std@@@2@V?$allocator@K@2@@std@@QAE@ABU?$less@V?$basic_string@DU?$char_traits@D@std@@V?$allocator@D@2@@std@@@1@ABV?$allocator@K@1@@Z 10023620 f i shader_LinkerDemo.obj
 0001:000226d0       ??A?$map@V?$basic_string@DU?$char_traits@D@std@@V?$allocator@D@2@@std@@KU?$less@V?$basic_string@DU?$char_traits@D@std@@V?$allocator@D@2@@std@@@2@V?$allocator@K@2@@std@@QAEAAKABV?$basic_string@DU?$char_traits@D@std@@V?$allocator@D@2@@1@@Z 100236d0 f i shader_LinkerDemo.obj
 0001:000227b0       ?erase@?$map@V?$basic_string@DU?$char_traits@D@std@@V?$allocator@D@2@@std@@KU?$less@V?$basic_string@DU?$char_traits@D@std@@V?$allocator@D@2@@std@@@2@V?$allocator@K@2@@std@@QAE?AViterator@?$_Tree@V?$basic_string@DU?$char_traits@D@std@@V?$allocator@D@2@@std@@U?$pair@$$CBV?$basic_string@DU?$char_traits@D@std@@V?$allocator@D@2@@std@@K@2@U_Kfn@?$map@V?$basic_string@DU?$char_traits@D@std@@V?$allocator@D@2@@std@@KU?$less@V?$basic_string@DU?$char_traits@D@std@@V?$allocator@D@2@@std@@@2@V?$allocator@K@2@@2@U?$less@V?$basic_string@DU?$char_traits@D@std@@V?$allocator@D@2@@std@@@2@V?$allocator@K@2@@2@V342@@Z 100237b0 f i shader_LinkerDemo.obj
 0001:000227d0       ?find@?$map@V?$basic_string@DU?$char_traits@D@std@@V?$allocator@D@2@@std@@KU?$less@V?$basic_string@DU?$char_traits@D@std@@V?$allocator@D@2@@std@@@2@V?$allocator@K@2@@std@@QAE?AViterator@?$_Tree@V?$basic_string@DU?$char_traits@D@std@@V?$allocator@D@2@@std@@U?$pair@$$CBV?$basic_string@DU?$char_traits@D@std@@V?$allocator@D@2@@std@@K@2@U_Kfn@?$map@V?$basic_string@DU?$char_traits@D@std@@V?$allocator@D@2@@std@@KU?$less@V?$basic_string@DU?$char_traits@D@std@@V?$allocator@D@2@@std@@@2@V?$allocator@K@2@@2@U?$less@V?$basic_string@DU?$char_traits@D@std@@V?$allocator@D@2@@std@@@2@V?$allocator@K@2@@2@ABV?$basic_string@DU?$char_traits@D@std@@V?$allocator@D@2@@2@@Z 100237d0 f i shader_LinkerDemo.obj
 0001:00022860       ??_FNVStreamData@nv_objects@@QAEXXZ 10023860 f i shader_LinkerDemo.obj
 0001:00022870       ??0?$map@KV?$basic_string@DU?$char_traits@D@std@@V?$allocator@D@2@@std@@U?$less@K@2@V?$allocator@V?$basic_string@DU?$char_traits@D@std@@V?$allocator@D@2@@std@@@2@@std@@QAE@ABU?$less@K@1@ABV?$allocator@V?$basic_string@DU?$char_traits@D@std@@V?$allocator@D@2@@std@@@1@@Z 10023870 f i shader_LinkerDemo.obj
 0001:00022920       ??A?$map@KV?$basic_string@DU?$char_traits@D@std@@V?$allocator@D@2@@std@@U?$less@K@2@V?$allocator@V?$basic_string@DU?$char_traits@D@std@@V?$allocator@D@2@@std@@@2@@std@@QAEAAV?$basic_string@DU?$char_traits@D@std@@V?$allocator@D@2@@1@ABK@Z 10023920 f i shader_LinkerDemo.obj
 0001:00022a40       ?SetDefaultState@NVStateManager@nv_objects@@UAEXXZ 10023a40 f i shader_LinkerDemo.obj
 0001:00023cf0       ?erase@?$map@KV?$basic_string@DU?$char_traits@D@std@@V?$allocator@D@2@@std@@U?$less@K@2@V?$allocator@V?$basic_string@DU?$char_traits@D@std@@V?$allocator@D@2@@std@@@2@@std@@QAE?AViterator@?$_Tree@KU?$pair@$$CBKV?$basic_string@DU?$char_traits@D@std@@V?$allocator@D@2@@std@@@std@@U_Kfn@?$map@KV?$basic_string@DU?$char_traits@D@std@@V?$allocator@D@2@@std@@U?$less@K@2@V?$allocator@V?$basic_string@DU?$char_traits@D@std@@V?$allocator@D@2@@std@@@2@@2@U?$less@K@2@V?$allocator@V?$basic_string@DU?$char_traits@D@std@@V?$allocator@D@2@@std@@@2@@2@V342@@Z 10024cf0 f i shader_LinkerDemo.obj
 0001:00023d10       ?find@?$map@KV?$basic_string@DU?$char_traits@D@std@@V?$allocator@D@2@@std@@U?$less@K@2@V?$allocator@V?$basic_string@DU?$char_traits@D@std@@V?$allocator@D@2@@std@@@2@@std@@QAE?AViterator@?$_Tree@KU?$pair@$$CBKV?$basic_string@DU?$char_traits@D@std@@V?$allocator@D@2@@std@@@std@@U_Kfn@?$map@KV?$basic_string@DU?$char_traits@D@std@@V?$allocator@D@2@@std@@U?$less@K@2@V?$allocator@V?$basic_string@DU?$char_traits@D@std@@V?$allocator@D@2@@std@@@2@@2@U?$less@K@2@V?$allocator@V?$basic_string@DU?$char_traits@D@std@@V?$allocator@D@2@@std@@@2@@2@ABK@Z 10024d10 f i shader_LinkerDemo.obj
 0001:00023d80       ??0?$set@KU?$less@K@std@@V?$allocator@K@2@@std@@QAE@ABU?$less@K@1@ABV?$allocator@K@1@@Z 10024d80 f i shader_LinkerDemo.obj
 0001:00023e30       ??1?$_Tree@KKU_Kfn@?$set@KU?$less@K@std@@V?$allocator@K@2@@std@@U?$less@K@3@V?$allocator@K@3@@std@@QAE@XZ 10024e30 f i shader_LinkerDemo.obj
 0001:00023f10       ??1?$Singleton@VNVStateManager@nv_objects@@@@UAE@XZ 10024f10 f i shader_LinkerDemo.obj
 0001:00023f30       ??0?$vector@VNVStateID@nv_objects@@V?$allocator@VNVStateID@nv_objects@@@std@@@std@@QAE@ABV?$allocator@VNVStateID@nv_objects@@@1@@Z 10024f30 f i shader_LinkerDemo.obj
 0001:00023f50       ??1?$vector@VNVStateID@nv_objects@@V?$allocator@VNVStateID@nv_objects@@@std@@@std@@QAE@XZ 10024f50 f i shader_LinkerDemo.obj
 0001:00023f80       ?SaveMaterial@NVStateManager@nv_objects@@UAEXPBU_D3DMATERIAL8@@@Z 10024f80 f i shader_LinkerDemo.obj
 0001:00023fb0       ?RestoreMaterial@NVStateManager@nv_objects@@UAEXXZ 10024fb0 f i shader_LinkerDemo.obj
 0001:00023fc0       ?SetMaterial@NVStateManager@nv_objects@@UAEXPBU_D3DMATERIAL8@@@Z 10024fc0 f i shader_LinkerDemo.obj
 0001:000241f0       ?SaveRenderState@NVStateManager@nv_objects@@UAEXW4_D3DRENDERSTATETYPE@@K@Z 100251f0 f i shader_LinkerDemo.obj
 0001:00024220       ?RestoreRenderState@NVStateManager@nv_objects@@UAEXW4_D3DRENDERSTATETYPE@@@Z 10025220 f i shader_LinkerDemo.obj
 0001:00024240       ?SetRenderState@NVStateManager@nv_objects@@UAEXW4_D3DRENDERSTATETYPE@@K@Z 10025240 f i shader_LinkerDemo.obj
 0001:00024490       ?SaveTexture@NVStateManager@nv_objects@@UAEXKPAUIDirect3DBaseTexture8@@@Z 10025490 f i shader_LinkerDemo.obj
 0001:000244c0       ?RestoreTexture@NVStateManager@nv_objects@@UAEXK@Z 100254c0 f i shader_LinkerDemo.obj
 0001:000244e0       ?SetTexture@NVStateManager@nv_objects@@UAEXKPAUIDirect3DBaseTexture8@@@Z 100254e0 f i shader_LinkerDemo.obj
 0001:00024730       ?begin@?$list@VNVComplexMeshSection@nv_objects@@V?$allocator@VNVComplexMeshSection@nv_objects@@@std@@@std@@QAE?AViterator@12@XZ 10025730 f i shader_LinkerDemo.obj
 0001:00024740       ?SaveTextureStageState@NVStateManager@nv_objects@@UAEXKW4_D3DTEXTURESTAGESTATETYPE@@K@Z 10025740 f i shader_LinkerDemo.obj
 0001:00024770       ?end@?$list@VNVComplexMeshSection@nv_objects@@V?$allocator@VNVComplexMeshSection@nv_objects@@@std@@@std@@QAE?AViterator@12@XZ 10025770 f i shader_LinkerDemo.obj
 0001:00024780       ?RestoreTextureStageState@NVStateManager@nv_objects@@UAEXKW4_D3DTEXTURESTAGESTATETYPE@@@Z 10025780 f i shader_LinkerDemo.obj
 0001:000247b0       ??Diterator@?$list@VNVComplexMeshSection@nv_objects@@V?$allocator@VNVComplexMeshSection@nv_objects@@@std@@@std@@QBEAAVNVComplexMeshSection@nv_objects@@XZ 100257b0 f i shader_LinkerDemo.obj
 0001:000247c0       ?SetTextureStageState@NVStateManager@nv_objects@@UAEXKW4_D3DTEXTURESTAGESTATETYPE@@K@Z 100257c0 f i shader_LinkerDemo.obj
 0001:00024a30       ??9iterator@?$list@VNVComplexMeshSection@nv_objects@@V?$allocator@VNVComplexMeshSection@nv_objects@@@std@@@std@@QBE_NABV012@@Z 10025a30 f i shader_LinkerDemo.obj
 0001:00024a50       ?SaveVertexShader@NVStateManager@nv_objects@@UAEXK@Z 10025a50 f i shader_LinkerDemo.obj
 0001:00024a70       ?RestoreVertexShader@NVStateManager@nv_objects@@UAEXXZ 10025a70 f i shader_LinkerDemo.obj
 0001:00024a80       ?SetVertexShader@NVStateManager@nv_objects@@UAEXK@Z 10025a80 f i shader_LinkerDemo.obj
 0001:00024ce0       ?SavePixelShader@NVStateManager@nv_objects@@UAEXK@Z 10025ce0 f i shader_LinkerDemo.obj
 0001:00024d00       ?RestorePixelShader@NVStateManager@nv_objects@@UAEXXZ 10025d00 f i shader_LinkerDemo.obj
 0001:00024d10       ?SetPixelShader@NVStateManager@nv_objects@@UAEXK@Z 10025d10 f i shader_LinkerDemo.obj
 0001:00024f70       ?SaveTransform@NVStateManager@nv_objects@@UAEXW4_D3DTRANSFORMSTATETYPE@@PBU_D3DMATRIX@@@Z 10025f70 f i shader_LinkerDemo.obj
 0001:00024fb0       ?RestoreTransform@NVStateManager@nv_objects@@UAEXW4_D3DTRANSFORMSTATETYPE@@@Z 10025fb0 f i shader_LinkerDemo.obj
 0001:00024fd0       ?SetTransform@NVStateManager@nv_objects@@UAEXW4_D3DTRANSFORMSTATETYPE@@PBU_D3DMATRIX@@@Z 10025fd0 f i shader_LinkerDemo.obj
 0001:00025040       ?SaveVertexShaderConstant@NVStateManager@nv_objects@@UAEXKPBXK@Z 10026040 f i shader_LinkerDemo.obj
 0001:000250a0       ?RestoreVertexShaderConstant@NVStateManager@nv_objects@@UAEXKK@Z 100260a0 f i shader_LinkerDemo.obj
 0001:000250d0       ?SetVertexShaderConstant@NVStateManager@nv_objects@@UAEXKPBXK@Z 100260d0 f i shader_LinkerDemo.obj
 0001:000253d0       ?SavePixelShaderConstant@NVStateManager@nv_objects@@UAEXKPBXK@Z 100263d0 f i shader_LinkerDemo.obj
 0001:00025430       ?RestorePixelShaderConstant@NVStateManager@nv_objects@@UAEXKK@Z 10026430 f i shader_LinkerDemo.obj
 0001:00025460       ?SetPixelShaderConstant@NVStateManager@nv_objects@@UAEXKPBXK@Z 10026460 f i shader_LinkerDemo.obj
 0001:00025760       ??0?$map@VCLinkerConstantSlot@@KU?$less@VCLinkerConstantSlot@@@std@@V?$allocator@K@3@@std@@QAE@ABU?$less@VCLinkerConstantSlot@@@1@ABV?$allocator@K@1@@Z 10026760 f i shader_LinkerDemo.obj
 0001:00025810       ??A?$map@VCLinkerConstantSlot@@KU?$less@VCLinkerConstantSlot@@@std@@V?$allocator@K@3@@std@@QAEAAKABVCLinkerConstantSlot@@@Z 10026810 f i shader_LinkerDemo.obj
 0001:00025950       ??A?$vector@KV?$allocator@K@std@@@std@@QAEAAKI@Z 10026950 f i shader_LinkerDemo.obj
 0001:00025960       ?push_back@?$vector@KV?$allocator@K@std@@@std@@QAEXABK@Z 10026960 f i shader_LinkerDemo.obj
 0001:00025b10       ?clear@?$vector@KV?$allocator@K@std@@@std@@QAEXXZ 10026b10 f i shader_LinkerDemo.obj
 0001:00025b50       ??1?$vector@VCLight@@V?$allocator@VCLight@@@std@@@std@@QAE@XZ 10026b50 f i shader_LinkerDemo.obj
 0001:00025ba0       ??_ENVStateManager@nv_objects@@UAEPAXI@Z 10026ba0 f i shader_LinkerDemo.obj
 0001:00025ba0       ??_GNVStateManager@nv_objects@@UAEPAXI@Z 10026ba0 f i shader_LinkerDemo.obj
 0001:00025bc0       ??1NVStateManager@nv_objects@@UAE@XZ 10026bc0 f i shader_LinkerDemo.obj
 0001:00025c50       ??1?$pair@$$CBV?$EBStr@D@@PAVEBProperty@@@std@@QAE@XZ 10026c50 f i shader_LinkerDemo.obj
 0001:00025c80       ??_E?$Singleton@VNVResourceManager@nv_objects@@@@UAEPAXI@Z 10026c80 f i shader_LinkerDemo.obj
 0001:00025c80       ??_G?$Singleton@VNVResourceManager@nv_objects@@@@UAEPAXI@Z 10026c80 f i shader_LinkerDemo.obj
 0001:00025cb0       ??1?$pair@$$CBV?$basic_string@DU?$char_traits@D@std@@V?$allocator@D@2@@std@@K@std@@QAE@XZ 10026cb0 f i shader_LinkerDemo.obj
 0001:00025cf0       ??1?$pair@$$CBKV?$basic_string@DU?$char_traits@D@std@@V?$allocator@D@2@@std@@@std@@QAE@XZ 10026cf0 f i shader_LinkerDemo.obj
 0001:00025d30       ??_G?$Singleton@VNVStateManager@nv_objects@@@@UAEPAXI@Z 10026d30 f i shader_LinkerDemo.obj
 0001:00025d30       ??_E?$Singleton@VNVStateManager@nv_objects@@@@UAEPAXI@Z 10026d30 f i shader_LinkerDemo.obj
 0001:00025d60       ?Invoke@NVTextureNormalMapFromResource@nv_objects@@UAE_NXZ 10026d60 f i shader_LinkerDemo.obj
 0001:00025e00       ?CreateNormalMap@NVTexture2@nv_objects@@SAPAUIDirect3DTexture8@@PAUIDirect3DDevice8@@PAU3@W4_D3DFORMAT@@W4_D3DPOOL@@@Z 10026e00 f i shader_LinkerDemo.obj
 0001:000262b0       ?D3DXVec3Cross@@YAPAUD3DXVECTOR3@@PAU1@PBU1@1@Z 100272b0 f i shader_LinkerDemo.obj
 0001:00026310       ?GetColors@NVDataFormat@nv_objects@@UAEXABU_D3DLOCKED_RECT@@KKAAM111@Z 10027310 f i shader_LinkerDemo.obj
 0001:00026320       ?SetColors@NVDataFormat@nv_objects@@UAEXABU_D3DLOCKED_RECT@@KKMMMM@Z 10027320 f i shader_LinkerDemo.obj
 0001:00026330       ?GetLuminance@NVDataFormat@nv_objects@@UAEXABU_D3DLOCKED_RECT@@KKAAM@Z 10027330 f i shader_LinkerDemo.obj
 0001:00026340       ?SetLuminance@NVDataFormat@nv_objects@@UAEXABU_D3DLOCKED_RECT@@KKM@Z 10027340 f i shader_LinkerDemo.obj
 0001:00026350       ?GetData@NVDataFormat_32Bit@nv_objects@@UAEXABU_D3DLOCKED_RECT@@KKAAK@Z 10027350 f i shader_LinkerDemo.obj
 0001:00026370       ?SetData@NVDataFormat_32Bit@nv_objects@@UAEXABU_D3DLOCKED_RECT@@KKK@Z 10027370 f i shader_LinkerDemo.obj
 0001:00026390       ?GetColors@NVDataFormat_A8R8G8B8@nv_objects@@UAEXABU_D3DLOCKED_RECT@@AAM111KK@Z 10027390 f i shader_LinkerDemo.obj
 0001:00026440       ?GetLuminance@NVDataFormat_A8R8G8B8@nv_objects@@UAEXABU_D3DLOCKED_RECT@@KKAAM@Z 10027440 f i shader_LinkerDemo.obj
 0001:000264a0       ?SetVector@NVDataFormat_A8R8G8B8@nv_objects@@UAEXABU_D3DLOCKED_RECT@@KKABUD3DXVECTOR3@@@Z 100274a0 f i shader_LinkerDemo.obj
 0001:00026550       ?GetVector@NVDataFormat_A8R8G8B8@nv_objects@@UAEXABU_D3DLOCKED_RECT@@KKAAUD3DXVECTOR3@@@Z 10027550 f i shader_LinkerDemo.obj
 0001:000265f0       ?GetColors@NVDataFormat_X8R8G8B8@nv_objects@@UAEXABU_D3DLOCKED_RECT@@KKAAM111@Z 100275f0 f i shader_LinkerDemo.obj
 0001:00026690       ?GetLuminance@NVDataFormat_X8R8G8B8@nv_objects@@UAEXABU_D3DLOCKED_RECT@@KKAAM@Z 10027690 f i shader_LinkerDemo.obj
 0001:000266f0       ?SetVector@NVDataFormat_X8R8G8B8@nv_objects@@UAEXABU_D3DLOCKED_RECT@@KKABUD3DXVECTOR3@@@Z 100276f0 f i shader_LinkerDemo.obj
 0001:000267a0       ?GetVector@NVDataFormat_X8R8G8B8@nv_objects@@UAEXABU_D3DLOCKED_RECT@@KKAAUD3DXVECTOR3@@@Z 100277a0 f i shader_LinkerDemo.obj
 0001:00026840       ?SetVector@NVDataFormat_Q8W8V8U8@nv_objects@@EAEXABU_D3DLOCKED_RECT@@KKABUD3DXVECTOR3@@@Z 10027840 f i shader_LinkerDemo.obj
 0001:000268a0       ?GetVector@NVDataFormat_Q8W8V8U8@nv_objects@@EAEXABU_D3DLOCKED_RECT@@KKAAUD3DXVECTOR3@@@Z 100278a0 f i shader_LinkerDemo.obj
 0001:00026910       ?SetVector@NVDataFormat_NVHS@nv_objects@@EAEXABU_D3DLOCKED_RECT@@KKABUD3DXVECTOR3@@@Z 10027910 f i shader_LinkerDemo.obj
 0001:00026980       ?GetVector@NVDataFormat_NVHS@nv_objects@@EAEXABU_D3DLOCKED_RECT@@KKAAUD3DXVECTOR3@@@Z 10027980 f i shader_LinkerDemo.obj
 0001:000269e0       ??1NV2DTextureLocker@nv_objects@@UAE@XZ 100279e0 f i shader_LinkerDemo.obj
 0001:00026a40       ?Unlock@NV2DTextureLocker@nv_objects@@QAE_NK@Z 10027a40 f i shader_LinkerDemo.obj
 0001:00026a60       ?GetMapLuminance@NV2DTextureLocker@nv_objects@@QAEXKKKAAM@Z 10027a60 f i shader_LinkerDemo.obj
 0001:00026ab0       ?SetMapVector@NV2DTextureLocker@nv_objects@@QAEXKKKABUD3DXVECTOR3@@@Z 10027ab0 f i shader_LinkerDemo.obj
 0001:00026b00       ??_ENV2DTextureLocker@nv_objects@@UAEPAXI@Z 10027b00 f i shader_LinkerDemo.obj
 0001:00026b00       ??_GNV2DTextureLocker@nv_objects@@UAEPAXI@Z 10027b00 f i shader_LinkerDemo.obj
 0001:00026b70       ?Dispose@NVTextureNormalMapFromResource@nv_objects@@UAE_NXZ 10027b70 f i shader_LinkerDemo.obj
 0001:00026ba0       ?IsDeviceObject@NVTextureNormalMapFromResource@nv_objects@@UBE_NXZ 10027ba0 f i shader_LinkerDemo.obj
 0001:00026bb0       ??_ENVTextureNormalMapFromResource@nv_objects@@UAEPAXI@Z 10027bb0 f i shader_LinkerDemo.obj
 0001:00026bb0       ??_GNVTextureNormalMapFromResource@nv_objects@@UAEPAXI@Z 10027bb0 f i shader_LinkerDemo.obj
 0001:00026bd0       ??1NVTextureNormalMapFromResource@nv_objects@@UAE@XZ 10027bd0 f i shader_LinkerDemo.obj
 0001:00026c30       ?AddRenderState@NVMaterialResource@nv_objects@@QAEPAVNVRenderState@2@W4_D3DRENDERSTATETYPE@@K@Z 10027c30 f i shader_LinkerDemo.obj
 0001:00026d90       ?AddTexture@NVMaterialResource@nv_objects@@QAEXKK@Z 10027d90 f i shader_LinkerDemo.obj
 0001:00026db0       ?GetTextureID@NVMaterialResource@nv_objects@@QAE?BKK@Z 10027db0 f i shader_LinkerDemo.obj
 0001:00026dc0       ?AddVertexShader@NVMaterialResource@nv_objects@@QAEXK@Z 10027dc0 f i shader_LinkerDemo.obj
 0001:00026dd0       ?GetMaterialID@NVComplexMeshSection@nv_objects@@QBEKXZ 10027dd0 f i shader_LinkerDemo.obj
 0001:00026de0       ?begin@?$_Tree@V?$EBStr@D@@U?$pair@$$CBV?$EBStr@D@@PAVEBProperty@@@std@@U_Kfn@?$map@V?$EBStr@D@@PAVEBProperty@@U?$less@V?$EBStr@D@@@std@@V?$allocator@PAVEBProperty@@@4@@3@U?$less@V?$EBStr@D@@@3@V?$allocator@PAVEBProperty@@@3@@std@@QAE?AViterator@12@XZ 10027de0 f i shader_LinkerDemo.obj
 0001:00026df0       ?erase@?$_Tree@V?$EBStr@D@@U?$pair@$$CBV?$EBStr@D@@PAVEBProperty@@@std@@U_Kfn@?$map@V?$EBStr@D@@PAVEBProperty@@U?$less@V?$EBStr@D@@@std@@V?$allocator@PAVEBProperty@@@4@@3@U?$less@V?$EBStr@D@@@3@V?$allocator@PAVEBProperty@@@3@@std@@QAE?AViterator@12@V312@@Z 10027df0 f i shader_LinkerDemo.obj
 0001:000271d0       ?UpdateLightVectors@CLight@@QAEXW4tagLightSpace@@@Z 100281d0 f i shader_LinkerDemo.obj
 0001:00027390       ??0CLinkerConstantSlot@@QAE@KJ@Z 10028390 f i shader_LinkerDemo.obj
 0001:000273b0       ??MCLinkerConstantSlot@@QBE_NABV0@@Z 100283b0 f i shader_LinkerDemo.obj
 0001:000273e0       ?erase@?$_Tree@V?$EBStr@D@@U?$pair@$$CBV?$EBStr@D@@PAVEBProperty@@@std@@U_Kfn@?$map@V?$EBStr@D@@PAVEBProperty@@U?$less@V?$EBStr@D@@@std@@V?$allocator@PAVEBProperty@@@4@@3@U?$less@V?$EBStr@D@@@3@V?$allocator@PAVEBProperty@@@3@@std@@QAE?AViterator@12@V312@0@Z 100283e0 f i shader_LinkerDemo.obj
 0001:00027490       ?erase@?$list@PAVEBEnumValue@@V?$allocator@PAVEBEnumValue@@@std@@@std@@QAE?AViterator@12@V312@@Z 10028490 f i shader_LinkerDemo.obj
 0001:000274d0       ??0?$_Tree@KU?$pair@$$CBKPAVNVBaseResource@nv_objects@@@std@@U_Kfn@?$map@KPAVNVBaseResource@nv_objects@@U?$less@K@std@@V?$allocator@PAVNVBaseResource@nv_objects@@@4@@2@U?$less@K@2@V?$allocator@PAVNVBaseResource@nv_objects@@@2@@std@@QAE@ABU?$less@K@1@_NABV?$allocator@PAVNVBaseResource@nv_objects@@@1@@Z 100284d0 f i shader_LinkerDemo.obj
 0001:00027500       ?erase@?$_Tree@KU?$pair@$$CBKPAVNVBaseResource@nv_objects@@@std@@U_Kfn@?$map@KPAVNVBaseResource@nv_objects@@U?$less@K@std@@V?$allocator@PAVNVBaseResource@nv_objects@@@4@@2@U?$less@K@2@V?$allocator@PAVNVBaseResource@nv_objects@@@2@@std@@QAE?AViterator@12@V312@@Z 10028500 f i shader_LinkerDemo.obj
 0001:000278d0       ?erase@?$_Tree@KU?$pair@$$CBKPAVNVBaseResource@nv_objects@@@std@@U_Kfn@?$map@KPAVNVBaseResource@nv_objects@@U?$less@K@std@@V?$allocator@PAVNVBaseResource@nv_objects@@@4@@2@U?$less@K@2@V?$allocator@PAVNVBaseResource@nv_objects@@@2@@std@@QAE?AViterator@12@V312@0@Z 100288d0 f i shader_LinkerDemo.obj
 0001:00027980       ?begin@?$_Tree@V?$basic_string@DU?$char_traits@D@std@@V?$allocator@D@2@@std@@U?$pair@$$CBV?$basic_string@DU?$char_traits@D@std@@V?$allocator@D@2@@std@@K@2@U_Kfn@?$map@V?$basic_string@DU?$char_traits@D@std@@V?$allocator@D@2@@std@@KU?$less@V?$basic_string@DU?$char_traits@D@std@@V?$allocator@D@2@@std@@@2@V?$allocator@K@2@@2@U?$less@V?$basic_string@DU?$char_traits@D@std@@V?$allocator@D@2@@std@@@2@V?$allocator@K@2@@std@@QAE?AViterator@12@XZ 10028980 f i shader_LinkerDemo.obj
 0001:00027990       ?erase@?$_Tree@V?$basic_string@DU?$char_traits@D@std@@V?$allocator@D@2@@std@@U?$pair@$$CBV?$basic_string@DU?$char_traits@D@std@@V?$allocator@D@2@@std@@K@2@U_Kfn@?$map@V?$basic_string@DU?$char_traits@D@std@@V?$allocator@D@2@@std@@KU?$less@V?$basic_string@DU?$char_traits@D@std@@V?$allocator@D@2@@std@@@2@V?$allocator@K@2@@2@U?$less@V?$basic_string@DU?$char_traits@D@std@@V?$allocator@D@2@@std@@@2@V?$allocator@K@2@@std@@QAE?AViterator@12@V312@@Z 10028990 f i shader_LinkerDemo.obj
 0001:00027d70       ?erase@?$_Tree@V?$basic_string@DU?$char_traits@D@std@@V?$allocator@D@2@@std@@U?$pair@$$CBV?$basic_string@DU?$char_traits@D@std@@V?$allocator@D@2@@std@@K@2@U_Kfn@?$map@V?$basic_string@DU?$char_traits@D@std@@V?$allocator@D@2@@std@@KU?$less@V?$basic_string@DU?$char_traits@D@std@@V?$allocator@D@2@@std@@@2@V?$allocator@K@2@@2@U?$less@V?$basic_string@DU?$char_traits@D@std@@V?$allocator@D@2@@std@@@2@V?$allocator@K@2@@std@@QAE?AViterator@12@V312@0@Z 10028d70 f i shader_LinkerDemo.obj
 0001:00027e20       ?find@?$_Tree@V?$basic_string@DU?$char_traits@D@std@@V?$allocator@D@2@@std@@U?$pair@$$CBV?$basic_string@DU?$char_traits@D@std@@V?$allocator@D@2@@std@@K@2@U_Kfn@?$map@V?$basic_string@DU?$char_traits@D@std@@V?$allocator@D@2@@std@@KU?$less@V?$basic_string@DU?$char_traits@D@std@@V?$allocator@D@2@@std@@@2@V?$allocator@K@2@@2@U?$less@V?$basic_string@DU?$char_traits@D@std@@V?$allocator@D@2@@std@@@2@V?$allocator@K@2@@std@@QAE?AViterator@12@ABV?$basic_string@DU?$char_traits@D@std@@V?$allocator@D@2@@2@@Z 10028e20 f i shader_LinkerDemo.obj
 0001:00027eb0       ?begin@?$_Tree@KU?$pair@$$CBKV?$basic_string@DU?$char_traits@D@std@@V?$allocator@D@2@@std@@@std@@U_Kfn@?$map@KV?$basic_string@DU?$char_traits@D@std@@V?$allocator@D@2@@std@@U?$less@K@2@V?$allocator@V?$basic_string@DU?$char_traits@D@std@@V?$allocator@D@2@@std@@@2@@2@U?$less@K@2@V?$allocator@V?$basic_string@DU?$char_traits@D@std@@V?$allocator@D@2@@std@@@2@@std@@QAE?AViterator@12@XZ 10028eb0 f i shader_LinkerDemo.obj
 0001:00027ec0       ?erase@?$_Tree@KU?$pair@$$CBKV?$basic_string@DU?$char_traits@D@std@@V?$allocator@D@2@@std@@@std@@U_Kfn@?$map@KV?$basic_string@DU?$char_traits@D@std@@V?$allocator@D@2@@std@@U?$less@K@2@V?$allocator@V?$basic_string@DU?$char_traits@D@std@@V?$allocator@D@2@@std@@@2@@2@U?$less@K@2@V?$allocator@V?$basic_string@DU?$char_traits@D@std@@V?$allocator@D@2@@std@@@2@@std@@QAE?AViterator@12@V312@@Z 10028ec0 f i shader_LinkerDemo.obj
 0001:000282a0       ?erase@?$_Tree@KU?$pair@$$CBKV?$basic_string@DU?$char_traits@D@std@@V?$allocator@D@2@@std@@@std@@U_Kfn@?$map@KV?$basic_string@DU?$char_traits@D@std@@V?$allocator@D@2@@std@@U?$less@K@2@V?$allocator@V?$basic_string@DU?$char_traits@D@std@@V?$allocator@D@2@@std@@@2@@2@U?$less@K@2@V?$allocator@V?$basic_string@DU?$char_traits@D@std@@V?$allocator@D@2@@std@@@2@@std@@QAE?AViterator@12@V312@0@Z 100292a0 f i shader_LinkerDemo.obj
 0001:00028350       ?find@?$_Tree@KU?$pair@$$CBKV?$basic_string@DU?$char_traits@D@std@@V?$allocator@D@2@@std@@@std@@U_Kfn@?$map@KV?$basic_string@DU?$char_traits@D@std@@V?$allocator@D@2@@std@@U?$less@K@2@V?$allocator@V?$basic_string@DU?$char_traits@D@std@@V?$allocator@D@2@@std@@@2@@2@U?$less@K@2@V?$allocator@V?$basic_string@DU?$char_traits@D@std@@V?$allocator@D@2@@std@@@2@@std@@QAE?AViterator@12@ABK@Z 10029350 f i shader_LinkerDemo.obj
 0001:000283c0       ?begin@?$_Tree@KKU_Kfn@?$set@KU?$less@K@std@@V?$allocator@K@2@@std@@U?$less@K@3@V?$allocator@K@3@@std@@QAE?AViterator@12@XZ 100293c0 f i shader_LinkerDemo.obj
 0001:000283d0       ?erase@?$_Tree@KKU_Kfn@?$set@KU?$less@K@std@@V?$allocator@K@2@@std@@U?$less@K@3@V?$allocator@K@3@@std@@QAE?AViterator@12@V312@0@Z 100293d0 f i shader_LinkerDemo.obj
 0001:00028480       ?erase@?$_Tree@KKU_Kfn@?$set@KU?$less@K@std@@V?$allocator@K@2@@std@@U?$less@K@3@V?$allocator@K@3@@std@@QAEIABK@Z 10029480 f i shader_LinkerDemo.obj
 0001:000285b0       ?find@?$_Tree@W4_D3DRENDERSTATETYPE@@U?$pair@$$CBW4_D3DRENDERSTATETYPE@@VNVRenderState@nv_objects@@@std@@U_Kfn@?$map@W4_D3DRENDERSTATETYPE@@VNVRenderState@nv_objects@@U?$less@W4_D3DRENDERSTATETYPE@@@std@@V?$allocator@VNVRenderState@nv_objects@@@5@@3@U?$less@W4_D3DRENDERSTATETYPE@@@3@V?$allocator@VNVRenderState@nv_objects@@@3@@std@@QAE?AViterator@12@ABW4_D3DRENDERSTATETYPE@@@Z 100295b0 f i shader_LinkerDemo.obj
 0001:00028620       ?insert@?$map@VCLinkerConstantSlot@@KU?$less@VCLinkerConstantSlot@@@std@@V?$allocator@K@3@@std@@QAE?AU?$pair@Viterator@?$_Tree@VCLinkerConstantSlot@@U?$pair@$$CBVCLinkerConstantSlot@@K@std@@U_Kfn@?$map@VCLinkerConstantSlot@@KU?$less@VCLinkerConstantSlot@@@std@@V?$allocator@K@3@@3@U?$less@VCLinkerConstantSlot@@@3@V?$allocator@K@3@@std@@_N@2@ABU?$pair@$$CBVCLinkerConstantSlot@@K@2@@Z 10029620 f i shader_LinkerDemo.obj
 0001:00028710       ?begin@?$_Tree@VCLinkerConstantSlot@@U?$pair@$$CBVCLinkerConstantSlot@@K@std@@U_Kfn@?$map@VCLinkerConstantSlot@@KU?$less@VCLinkerConstantSlot@@@std@@V?$allocator@K@3@@3@U?$less@VCLinkerConstantSlot@@@3@V?$allocator@K@3@@std@@QAE?AViterator@12@XZ 10029710 f i shader_LinkerDemo.obj
 0001:00028720       ?find@?$_Tree@VCLinkerConstantSlot@@U?$pair@$$CBVCLinkerConstantSlot@@K@std@@U_Kfn@?$map@VCLinkerConstantSlot@@KU?$less@VCLinkerConstantSlot@@@std@@V?$allocator@K@3@@3@U?$less@VCLinkerConstantSlot@@@3@V?$allocator@K@3@@std@@QAE?AViterator@12@ABVCLinkerConstantSlot@@@Z 10029720 f i shader_LinkerDemo.obj
 0001:000287b0       ?insert@?$_Tree@V?$EBStr@D@@U?$pair@$$CBV?$EBStr@D@@PAVEBProperty@@@std@@U_Kfn@?$map@V?$EBStr@D@@PAVEBProperty@@U?$less@V?$EBStr@D@@@std@@V?$allocator@PAVEBProperty@@@4@@3@U?$less@V?$EBStr@D@@@3@V?$allocator@PAVEBProperty@@@3@@std@@QAE?AU?$pair@Viterator@?$_Tree@V?$EBStr@D@@U?$pair@$$CBV?$EBStr@D@@PAVEBProperty@@@std@@U_Kfn@?$map@V?$EBStr@D@@PAVEBProperty@@U?$less@V?$EBStr@D@@@std@@V?$allocator@PAVEBProperty@@@4@@3@U?$less@V?$EBStr@D@@@3@V?$allocator@PAVEBProperty@@@3@@std@@_N@2@ABU?$pair@$$CBV?$EBStr@D@@PAVEBProperty@@@2@@Z 100297b0 f i shader_LinkerDemo.obj
 0001:00028a10       ?_Erase@?$_Tree@V?$EBStr@D@@U?$pair@$$CBV?$EBStr@D@@PAVEBProperty@@@std@@U_Kfn@?$map@V?$EBStr@D@@PAVEBProperty@@U?$less@V?$EBStr@D@@@std@@V?$allocator@PAVEBProperty@@@4@@3@U?$less@V?$EBStr@D@@@3@V?$allocator@PAVEBProperty@@@3@@std@@IAEXPAU_Node@12@@Z 10029a10 f i shader_LinkerDemo.obj
 0001:00028a60       ?_Lrotate@?$_Tree@V?$EBStr@D@@U?$pair@$$CBV?$EBStr@D@@PAVEBProperty@@@std@@U_Kfn@?$map@V?$EBStr@D@@PAVEBProperty@@U?$less@V?$EBStr@D@@@std@@V?$allocator@PAVEBProperty@@@4@@3@U?$less@V?$EBStr@D@@@3@V?$allocator@PAVEBProperty@@@3@@std@@IAEXPAU_Node@12@@Z 10029a60 f i shader_LinkerDemo.obj
 0001:00028ac0       ?_Rrotate@?$_Tree@V?$EBStr@D@@U?$pair@$$CBV?$EBStr@D@@PAVEBProperty@@@std@@U_Kfn@?$map@V?$EBStr@D@@PAVEBProperty@@U?$less@V?$EBStr@D@@@std@@V?$allocator@PAVEBProperty@@@4@@3@U?$less@V?$EBStr@D@@@3@V?$allocator@PAVEBProperty@@@3@@std@@IAEXPAU_Node@12@@Z 10029ac0 f i shader_LinkerDemo.obj
 0001:00028b20       ?_Inc@const_iterator@?$_Tree@V?$EBStr@D@@U?$pair@$$CBV?$EBStr@D@@PAVEBProperty@@@std@@U_Kfn@?$map@V?$EBStr@D@@PAVEBProperty@@U?$less@V?$EBStr@D@@@std@@V?$allocator@PAVEBProperty@@@4@@3@U?$less@V?$EBStr@D@@@3@V?$allocator@PAVEBProperty@@@3@@std@@QAEXXZ 10029b20 f i shader_LinkerDemo.obj
 0001:00028b70       ?_Erase@?$_Tree@KU?$pair@$$CBKPAVNVBaseResource@nv_objects@@@std@@U_Kfn@?$map@KPAVNVBaseResource@nv_objects@@U?$less@K@std@@V?$allocator@PAVNVBaseResource@nv_objects@@@4@@2@U?$less@K@2@V?$allocator@PAVNVBaseResource@nv_objects@@@2@@std@@IAEXPAU_Node@12@@Z 10029b70 f i shader_LinkerDemo.obj
 0001:00028bb0       ?_Init@?$_Tree@KU?$pair@$$CBKPAVNVBaseResource@nv_objects@@@std@@U_Kfn@?$map@KPAVNVBaseResource@nv_objects@@U?$less@K@std@@V?$allocator@PAVNVBaseResource@nv_objects@@@4@@2@U?$less@K@2@V?$allocator@PAVNVBaseResource@nv_objects@@@2@@std@@IAEXXZ 10029bb0 f i shader_LinkerDemo.obj
 0001:00028c50       ?_Inc@const_iterator@?$_Tree@KU?$pair@$$CBKPAVNVBaseResource@nv_objects@@@std@@U_Kfn@?$map@KPAVNVBaseResource@nv_objects@@U?$less@K@std@@V?$allocator@PAVNVBaseResource@nv_objects@@@4@@2@U?$less@K@2@V?$allocator@PAVNVBaseResource@nv_objects@@@2@@std@@QAEXXZ 10029c50 f i shader_LinkerDemo.obj
 0001:00028ca0       ?insert@?$_Tree@V?$basic_string@DU?$char_traits@D@std@@V?$allocator@D@2@@std@@U?$pair@$$CBV?$basic_string@DU?$char_traits@D@std@@V?$allocator@D@2@@std@@K@2@U_Kfn@?$map@V?$basic_string@DU?$char_traits@D@std@@V?$allocator@D@2@@std@@KU?$less@V?$basic_string@DU?$char_traits@D@std@@V?$allocator@D@2@@std@@@2@V?$allocator@K@2@@2@U?$less@V?$basic_string@DU?$char_traits@D@std@@V?$allocator@D@2@@std@@@2@V?$allocator@K@2@@std@@QAE?AU?$pair@Viterator@?$_Tree@V?$basic_string@DU?$char_traits@D@std@@V?$allocator@D@2@@std@@U?$pair@$$CBV?$basic_string@DU?$char_traits@D@std@@V?$allocator@D@2@@std@@K@2@U_Kfn@?$map@V?$basic_string@DU?$char_traits@D@std@@V?$allocator@D@2@@std@@KU?$less@V?$basic_string@DU?$char_traits@D@std@@V?$allocator@D@2@@std@@@2@V?$allocator@K@2@@2@U?$less@V?$basic_string@DU?$char_traits@D@std@@V?$allocator@D@2@@std@@@2@V?$allocator@K@2@@std@@_N@2@ABU?$pair@$$CBV?$basic_string@DU?$char_traits@D@std@@V?$allocator@D@2@@std@@K@2@@Z 10029ca0 f i shader_LinkerDemo.obj
 0001:00028ef0       ?lower_bound@?$_Tree@V?$basic_string@DU?$char_traits@D@std@@V?$allocator@D@2@@std@@U?$pair@$$CBV?$basic_string@DU?$char_traits@D@std@@V?$allocator@D@2@@std@@K@2@U_Kfn@?$map@V?$basic_string@DU?$char_traits@D@std@@V?$allocator@D@2@@std@@KU?$less@V?$basic_string@DU?$char_traits@D@std@@V?$allocator@D@2@@std@@@2@V?$allocator@K@2@@2@U?$less@V?$basic_string@DU?$char_traits@D@std@@V?$allocator@D@2@@std@@@2@V?$allocator@K@2@@std@@QAE?AViterator@12@ABV?$basic_string@DU?$char_traits@D@std@@V?$allocator@D@2@@2@@Z 10029ef0 f i shader_LinkerDemo.obj
 0001:00028f50       ?_Erase@?$_Tree@V?$basic_string@DU?$char_traits@D@std@@V?$allocator@D@2@@std@@U?$pair@$$CBV?$basic_string@DU?$char_traits@D@std@@V?$allocator@D@2@@std@@K@2@U_Kfn@?$map@V?$basic_string@DU?$char_traits@D@std@@V?$allocator@D@2@@std@@KU?$less@V?$basic_string@DU?$char_traits@D@std@@V?$allocator@D@2@@std@@@2@V?$allocator@K@2@@2@U?$less@V?$basic_string@DU?$char_traits@D@std@@V?$allocator@D@2@@std@@@2@V?$allocator@K@2@@std@@IAEXPAU_Node@12@@Z 10029f50 f i shader_LinkerDemo.obj
 0001:00028fa0       ?_Lrotate@?$_Tree@V?$basic_string@DU?$char_traits@D@std@@V?$allocator@D@2@@std@@U?$pair@$$CBV?$basic_string@DU?$char_traits@D@std@@V?$allocator@D@2@@std@@K@2@U_Kfn@?$map@V?$basic_string@DU?$char_traits@D@std@@V?$allocator@D@2@@std@@KU?$less@V?$basic_string@DU?$char_traits@D@std@@V?$allocator@D@2@@std@@@2@V?$allocator@K@2@@2@U?$less@V?$basic_string@DU?$char_traits@D@std@@V?$allocator@D@2@@std@@@2@V?$allocator@K@2@@std@@IAEXPAU_Node@12@@Z 10029fa0 f i shader_LinkerDemo.obj
 0001:00029000       ?_Rrotate@?$_Tree@V?$basic_string@DU?$char_traits@D@std@@V?$allocator@D@2@@std@@U?$pair@$$CBV?$basic_string@DU?$char_traits@D@std@@V?$allocator@D@2@@std@@K@2@U_Kfn@?$map@V?$basic_string@DU?$char_traits@D@std@@V?$allocator@D@2@@std@@KU?$less@V?$basic_string@DU?$char_traits@D@std@@V?$allocator@D@2@@std@@@2@V?$allocator@K@2@@2@U?$less@V?$basic_string@DU?$char_traits@D@std@@V?$allocator@D@2@@std@@@2@V?$allocator@K@2@@std@@IAEXPAU_Node@12@@Z 1002a000 f i shader_LinkerDemo.obj
 0001:00029060       ?insert@?$_Tree@KU?$pair@$$CBKV?$basic_string@DU?$char_traits@D@std@@V?$allocator@D@2@@std@@@std@@U_Kfn@?$map@KV?$basic_string@DU?$char_traits@D@std@@V?$allocator@D@2@@std@@U?$less@K@2@V?$allocator@V?$basic_string@DU?$char_traits@D@std@@V?$allocator@D@2@@std@@@2@@2@U?$less@K@2@V?$allocator@V?$basic_string@DU?$char_traits@D@std@@V?$allocator@D@2@@std@@@2@@std@@QAE?AU?$pair@Viterator@?$_Tree@KU?$pair@$$CBKV?$basic_string@DU?$char_traits@D@std@@V?$allocator@D@2@@std@@@std@@U_Kfn@?$map@KV?$basic_string@DU?$char_traits@D@std@@V?$allocator@D@2@@std@@U?$less@K@2@V?$allocator@V?$basic_string@DU?$char_traits@D@std@@V?$allocator@D@2@@std@@@2@@2@U?$less@K@2@V?$allocator@V?$basic_string@DU?$char_traits@D@std@@V?$allocator@D@2@@std@@@2@@std@@_N@2@ABU?$pair@$$CBKV?$basic_string@DU?$char_traits@D@std@@V?$allocator@D@2@@std@@@2@@Z 1002a060 f i shader_LinkerDemo.obj
 0001:000292a0       ?_Erase@?$_Tree@KU?$pair@$$CBKV?$basic_string@DU?$char_traits@D@std@@V?$allocator@D@2@@std@@@std@@U_Kfn@?$map@KV?$basic_string@DU?$char_traits@D@std@@V?$allocator@D@2@@std@@U?$less@K@2@V?$allocator@V?$basic_string@DU?$char_traits@D@std@@V?$allocator@D@2@@std@@@2@@2@U?$less@K@2@V?$allocator@V?$basic_string@DU?$char_traits@D@std@@V?$allocator@D@2@@std@@@2@@std@@IAEXPAU_Node@12@@Z 1002a2a0 f i shader_LinkerDemo.obj
 0001:000292f0       ?_Lrotate@?$_Tree@KU?$pair@$$CBKV?$basic_string@DU?$char_traits@D@std@@V?$allocator@D@2@@std@@@std@@U_Kfn@?$map@KV?$basic_string@DU?$char_traits@D@std@@V?$allocator@D@2@@std@@U?$less@K@2@V?$allocator@V?$basic_string@DU?$char_traits@D@std@@V?$allocator@D@2@@std@@@2@@2@U?$less@K@2@V?$allocator@V?$basic_string@DU?$char_traits@D@std@@V?$allocator@D@2@@std@@@2@@std@@IAEXPAU_Node@12@@Z 1002a2f0 f i shader_LinkerDemo.obj
 0001:00029350       ?_Rrotate@?$_Tree@KU?$pair@$$CBKV?$basic_string@DU?$char_traits@D@std@@V?$allocator@D@2@@std@@@std@@U_Kfn@?$map@KV?$basic_string@DU?$char_traits@D@std@@V?$allocator@D@2@@std@@U?$less@K@2@V?$allocator@V?$basic_string@DU?$char_traits@D@std@@V?$allocator@D@2@@std@@@2@@2@U?$less@K@2@V?$allocator@V?$basic_string@DU?$char_traits@D@std@@V?$allocator@D@2@@std@@@2@@std@@IAEXPAU_Node@12@@Z 1002a350 f i shader_LinkerDemo.obj
 0001:000293b0       ?erase@?$_Tree@KKU_Kfn@?$set@KU?$less@K@std@@V?$allocator@K@2@@std@@U?$less@K@3@V?$allocator@K@3@@std@@QAE?AViterator@12@V312@@Z 1002a3b0 f i shader_LinkerDemo.obj
 0001:00029780       ?_Erase@?$_Tree@KKU_Kfn@?$set@KU?$less@K@std@@V?$allocator@K@2@@std@@U?$less@K@3@V?$allocator@K@3@@std@@IAEXPAU_Node@12@@Z 1002a780 f i shader_LinkerDemo.obj
 0001:000297c0       ?insert@?$vector@VNVStateID@nv_objects@@V?$allocator@VNVStateID@nv_objects@@@std@@@std@@QAEXPAVNVStateID@nv_objects@@IABV34@@Z 1002a7c0 f i shader_LinkerDemo.obj
 0001:00029af0       ?erase@?$_Tree@VCLinkerConstantSlot@@U?$pair@$$CBVCLinkerConstantSlot@@K@std@@U_Kfn@?$map@VCLinkerConstantSlot@@KU?$less@VCLinkerConstantSlot@@@std@@V?$allocator@K@3@@3@U?$less@VCLinkerConstantSlot@@@3@V?$allocator@K@3@@std@@QAE?AViterator@12@V312@@Z 1002aaf0 f i shader_LinkerDemo.obj
 0001:00029ec0       ?_Erase@?$_Tree@VCLinkerConstantSlot@@U?$pair@$$CBVCLinkerConstantSlot@@K@std@@U_Kfn@?$map@VCLinkerConstantSlot@@KU?$less@VCLinkerConstantSlot@@@std@@V?$allocator@K@3@@3@U?$less@VCLinkerConstantSlot@@@3@V?$allocator@K@3@@std@@IAEXPAU_Node@12@@Z 1002aec0 f i shader_LinkerDemo.obj
 0001:00029f00       ??0?$pair@Viterator@?$_Tree@VCLinkerConstantSlot@@U?$pair@$$CBVCLinkerConstantSlot@@K@std@@U_Kfn@?$map@VCLinkerConstantSlot@@KU?$less@VCLinkerConstantSlot@@@std@@V?$allocator@K@3@@3@U?$less@VCLinkerConstantSlot@@@3@V?$allocator@K@3@@std@@_N@std@@QAE@ABViterator@?$_Tree@VCLinkerConstantSlot@@U?$pair@$$CBVCLinkerConstantSlot@@K@std@@U_Kfn@?$map@VCLinkerConstantSlot@@KU?$less@VCLinkerConstantSlot@@@std@@V?$allocator@K@3@@3@U?$less@VCLinkerConstantSlot@@@3@V?$allocator@K@3@@1@AB_N@Z 1002af00 f i shader_LinkerDemo.obj
 0001:00029f20       ?_Insert@?$_Tree@V?$EBStr@D@@U?$pair@$$CBV?$EBStr@D@@PAVEBProperty@@@std@@U_Kfn@?$map@V?$EBStr@D@@PAVEBProperty@@U?$less@V?$EBStr@D@@@std@@V?$allocator@PAVEBProperty@@@4@@3@U?$less@V?$EBStr@D@@@3@V?$allocator@PAVEBProperty@@@3@@std@@IAE?AViterator@12@PAU_Node@12@0ABU?$pair@$$CBV?$EBStr@D@@PAVEBProperty@@@2@@Z 1002af20 f i shader_LinkerDemo.obj
 0001:0002a190       ?_Lbound@?$_Tree@V?$EBStr@D@@U?$pair@$$CBV?$EBStr@D@@PAVEBProperty@@@std@@U_Kfn@?$map@V?$EBStr@D@@PAVEBProperty@@U?$less@V?$EBStr@D@@@std@@V?$allocator@PAVEBProperty@@@4@@3@U?$less@V?$EBStr@D@@@3@V?$allocator@PAVEBProperty@@@3@@std@@IBEPAU_Node@12@ABV?$EBStr@D@@@Z 1002b190 f i shader_LinkerDemo.obj
 0001:0002a1e0       ?_Buynode@?$_Tree@V?$EBStr@D@@U?$pair@$$CBV?$EBStr@D@@PAVEBProperty@@@std@@U_Kfn@?$map@V?$EBStr@D@@PAVEBProperty@@U?$less@V?$EBStr@D@@@std@@V?$allocator@PAVEBProperty@@@4@@3@U?$less@V?$EBStr@D@@@3@V?$allocator@PAVEBProperty@@@3@@std@@IAEPAU_Node@12@PAU312@W4_Redbl@12@@Z 1002b1e0 f i shader_LinkerDemo.obj
 0001:0002a200       ?_Insert@?$_Tree@V?$basic_string@DU?$char_traits@D@std@@V?$allocator@D@2@@std@@U?$pair@$$CBV?$basic_string@DU?$char_traits@D@std@@V?$allocator@D@2@@std@@K@2@U_Kfn@?$map@V?$basic_string@DU?$char_traits@D@std@@V?$allocator@D@2@@std@@KU?$less@V?$basic_string@DU?$char_traits@D@std@@V?$allocator@D@2@@std@@@2@V?$allocator@K@2@@2@U?$less@V?$basic_string@DU?$char_traits@D@std@@V?$allocator@D@2@@std@@@2@V?$allocator@K@2@@std@@IAE?AViterator@12@PAU_Node@12@0ABU?$pair@$$CBV?$basic_string@DU?$char_traits@D@std@@V?$allocator@D@2@@std@@K@2@@Z 1002b200 f i shader_LinkerDemo.obj
 0001:0002a470       ?_Buynode@?$_Tree@V?$basic_string@DU?$char_traits@D@std@@V?$allocator@D@2@@std@@U?$pair@$$CBV?$basic_string@DU?$char_traits@D@std@@V?$allocator@D@2@@std@@K@2@U_Kfn@?$map@V?$basic_string@DU?$char_traits@D@std@@V?$allocator@D@2@@std@@KU?$less@V?$basic_string@DU?$char_traits@D@std@@V?$allocator@D@2@@std@@@2@V?$allocator@K@2@@2@U?$less@V?$basic_string@DU?$char_traits@D@std@@V?$allocator@D@2@@std@@@2@V?$allocator@K@2@@std@@IAEPAU_Node@12@PAU312@W4_Redbl@12@@Z 1002b470 f i shader_LinkerDemo.obj
 0001:0002a490       ?_Insert@?$_Tree@KU?$pair@$$CBKV?$basic_string@DU?$char_traits@D@std@@V?$allocator@D@2@@std@@@std@@U_Kfn@?$map@KV?$basic_string@DU?$char_traits@D@std@@V?$allocator@D@2@@std@@U?$less@K@2@V?$allocator@V?$basic_string@DU?$char_traits@D@std@@V?$allocator@D@2@@std@@@2@@2@U?$less@K@2@V?$allocator@V?$basic_string@DU?$char_traits@D@std@@V?$allocator@D@2@@std@@@2@@std@@IAE?AViterator@12@PAU_Node@12@0ABU?$pair@$$CBKV?$basic_string@DU?$char_traits@D@std@@V?$allocator@D@2@@std@@@2@@Z 1002b490 f i shader_LinkerDemo.obj
 0001:0002a700       ?_Buynode@?$_Tree@KU?$pair@$$CBKV?$basic_string@DU?$char_traits@D@std@@V?$allocator@D@2@@std@@@std@@U_Kfn@?$map@KV?$basic_string@DU?$char_traits@D@std@@V?$allocator@D@2@@std@@U?$less@K@2@V?$allocator@V?$basic_string@DU?$char_traits@D@std@@V?$allocator@D@2@@std@@@2@@2@U?$less@K@2@V?$allocator@V?$basic_string@DU?$char_traits@D@std@@V?$allocator@D@2@@std@@@2@@std@@IAEPAU_Node@12@PAU312@W4_Redbl@12@@Z 1002b700 f i shader_LinkerDemo.obj
 0001:0002a720       ?_Min@?$_Tree@KKU_Kfn@?$set@KU?$less@K@std@@V?$allocator@K@2@@std@@U?$less@K@3@V?$allocator@K@3@@std@@KAPAU_Node@12@PAU312@@Z 1002b720 f i shader_LinkerDemo.obj
 0001:0002a740       ?_Insert@?$_Tree@VCLinkerConstantSlot@@U?$pair@$$CBVCLinkerConstantSlot@@K@std@@U_Kfn@?$map@VCLinkerConstantSlot@@KU?$less@VCLinkerConstantSlot@@@std@@V?$allocator@K@3@@3@U?$less@VCLinkerConstantSlot@@@3@V?$allocator@K@3@@std@@IAE?AViterator@12@PAU_Node@12@0ABU?$pair@$$CBVCLinkerConstantSlot@@K@2@@Z 1002b740 f i shader_LinkerDemo.obj
 0001:0002a9b0       ?_Lbound@?$_Tree@VCLinkerConstantSlot@@U?$pair@$$CBVCLinkerConstantSlot@@K@std@@U_Kfn@?$map@VCLinkerConstantSlot@@KU?$less@VCLinkerConstantSlot@@@std@@V?$allocator@K@3@@3@U?$less@VCLinkerConstantSlot@@@3@V?$allocator@K@3@@std@@IBEPAU_Node@12@ABVCLinkerConstantSlot@@@Z 1002b9b0 f i shader_LinkerDemo.obj
 0001:0002aa00       ?_Dec@const_iterator@?$_Tree@V?$EBStr@D@@U?$pair@$$CBV?$EBStr@D@@PAVEBProperty@@@std@@U_Kfn@?$map@V?$EBStr@D@@PAVEBProperty@@U?$less@V?$EBStr@D@@@std@@V?$allocator@PAVEBProperty@@@4@@3@U?$less@V?$EBStr@D@@@3@V?$allocator@PAVEBProperty@@@3@@std@@QAEXXZ 1002ba00 f i shader_LinkerDemo.obj
 0001:0002aa60       ?_Dec@const_iterator@?$_Tree@V?$basic_string@DU?$char_traits@D@std@@V?$allocator@D@2@@std@@U?$pair@$$CBV?$basic_string@DU?$char_traits@D@std@@V?$allocator@D@2@@std@@K@2@U_Kfn@?$map@V?$basic_string@DU?$char_traits@D@std@@V?$allocator@D@2@@std@@KU?$less@V?$basic_string@DU?$char_traits@D@std@@V?$allocator@D@2@@std@@@2@V?$allocator@K@2@@2@U?$less@V?$basic_string@DU?$char_traits@D@std@@V?$allocator@D@2@@std@@@2@V?$allocator@K@2@@std@@QAEXXZ 1002ba60 f i shader_LinkerDemo.obj
 0001:0002aac0       ?_Inc@const_iterator@?$_Tree@V?$basic_string@DU?$char_traits@D@std@@V?$allocator@D@2@@std@@U?$pair@$$CBV?$basic_string@DU?$char_traits@D@std@@V?$allocator@D@2@@std@@K@2@U_Kfn@?$map@V?$basic_string@DU?$char_traits@D@std@@V?$allocator@D@2@@std@@KU?$less@V?$basic_string@DU?$char_traits@D@std@@V?$allocator@D@2@@std@@@2@V?$allocator@K@2@@2@U?$less@V?$basic_string@DU?$char_traits@D@std@@V?$allocator@D@2@@std@@@2@V?$allocator@K@2@@std@@QAEXXZ 1002bac0 f i shader_LinkerDemo.obj
 0001:0002ab10       ?_Dec@const_iterator@?$_Tree@KU?$pair@$$CBKV?$basic_string@DU?$char_traits@D@std@@V?$allocator@D@2@@std@@@std@@U_Kfn@?$map@KV?$basic_string@DU?$char_traits@D@std@@V?$allocator@D@2@@std@@U?$less@K@2@V?$allocator@V?$basic_string@DU?$char_traits@D@std@@V?$allocator@D@2@@std@@@2@@2@U?$less@K@2@V?$allocator@V?$basic_string@DU?$char_traits@D@std@@V?$allocator@D@2@@std@@@2@@std@@QAEXXZ 1002bb10 f i shader_LinkerDemo.obj
 0001:0002ab70       ?_Inc@const_iterator@?$_Tree@KU?$pair@$$CBKV?$basic_string@DU?$char_traits@D@std@@V?$allocator@D@2@@std@@@std@@U_Kfn@?$map@KV?$basic_string@DU?$char_traits@D@std@@V?$allocator@D@2@@std@@U?$less@K@2@V?$allocator@V?$basic_string@DU?$char_traits@D@std@@V?$allocator@D@2@@std@@@2@@2@U?$less@K@2@V?$allocator@V?$basic_string@DU?$char_traits@D@std@@V?$allocator@D@2@@std@@@2@@std@@QAEXXZ 1002bb70 f i shader_LinkerDemo.obj
 0001:0002abc0       ?_Ubound@?$_Tree@KKU_Kfn@?$set@KU?$less@K@std@@V?$allocator@K@2@@std@@U?$less@K@3@V?$allocator@K@3@@std@@IBEPAU_Node@12@ABK@Z 1002bbc0 f i shader_LinkerDemo.obj
 0001:0002abf0       ?_Inc@const_iterator@?$_Tree@KKU_Kfn@?$set@KU?$less@K@std@@V?$allocator@K@2@@std@@U?$less@K@3@V?$allocator@K@3@@std@@QAEXXZ 1002bbf0 f i shader_LinkerDemo.obj
 0001:0002ac40       ?_Dec@const_iterator@?$_Tree@VCLinkerConstantSlot@@U?$pair@$$CBVCLinkerConstantSlot@@K@std@@U_Kfn@?$map@VCLinkerConstantSlot@@KU?$less@VCLinkerConstantSlot@@@std@@V?$allocator@K@3@@3@U?$less@VCLinkerConstantSlot@@@3@V?$allocator@K@3@@std@@QAEXXZ 1002bc40 f i shader_LinkerDemo.obj
 0001:0002aca0       ?_Inc@const_iterator@?$_Tree@VCLinkerConstantSlot@@U?$pair@$$CBVCLinkerConstantSlot@@K@std@@U_Kfn@?$map@VCLinkerConstantSlot@@KU?$less@VCLinkerConstantSlot@@@std@@V?$allocator@K@3@@3@U?$less@VCLinkerConstantSlot@@@3@V?$allocator@K@3@@std@@QAEXXZ 1002bca0 f i shader_LinkerDemo.obj
 0001:0002acf0       ?_Construct@std@@YAXPAU?$pair@$$CBV?$EBStr@D@@PAVEBProperty@@@1@ABU21@@Z 1002bcf0 f i shader_LinkerDemo.obj
 0001:0002ad70       ?_Construct@std@@YAXPAU?$pair@$$CBV?$basic_string@DU?$char_traits@D@std@@V?$allocator@D@2@@std@@K@1@ABU21@@Z 1002bd70 f i shader_LinkerDemo.obj
 0001:0002aed0       ?_Construct@std@@YAXPAU?$pair@$$CBKV?$basic_string@DU?$char_traits@D@std@@V?$allocator@D@2@@std@@@1@ABU21@@Z 1002bed0 f i shader_LinkerDemo.obj
 0001:0002b050       ?_Construct@std@@YAXPAU?$pair@$$CBVCLinkerConstantSlot@@K@1@ABU21@@Z 1002c050 f i shader_LinkerDemo.obj
 0001:0002b070       ??_G?$pair@$$CBV?$EBStr@D@@PAVEBProperty@@@std@@QAEPAXI@Z 1002c070 f i shader_LinkerDemo.obj
 0001:0002b090       ??_G?$pair@$$CBV?$basic_string@DU?$char_traits@D@std@@V?$allocator@D@2@@std@@K@std@@QAEPAXI@Z 1002c090 f i shader_LinkerDemo.obj
 0001:0002b0b0       ??_G?$pair@$$CBKV?$basic_string@DU?$char_traits@D@std@@V?$allocator@D@2@@std@@@std@@QAEPAXI@Z 1002c0b0 f i shader_LinkerDemo.obj
 0001:0002b0d0       _HeapFree@12               1002c0d0 f   kernel32:KERNEL32.dll
 0001:0002b0d6       _GetProcessHeap@0          1002c0d6 f   kernel32:KERNEL32.dll
 0001:0002b0dc       _HeapAlloc@12              1002c0dc f   kernel32:KERNEL32.dll
 0001:0002b0e2       _CloseHandle@4             1002c0e2 f   kernel32:KERNEL32.dll
 0001:0002b0e8       _CreateFileA@28            1002c0e8 f   kernel32:KERNEL32.dll
 0001:0002b0ee       _GetModuleFileNameA@12     1002c0ee f   kernel32:KERNEL32.dll
 0001:0002b0f4       _ReadFile@20               1002c0f4 f   kernel32:KERNEL32.dll
 0001:0002b0fa       _GetFileSize@8             1002c0fa f   kernel32:KERNEL32.dll
 0001:0002b100       _GetProcAddress@8          1002c100 f   kernel32:KERNEL32.dll
 0001:0002b106       _LoadLibraryA@4            1002c106 f   kernel32:KERNEL32.dll
 0001:0002b10c       _WriteFile@20              1002c10c f   kernel32:KERNEL32.dll
 0001:0002b112       _FreeLibrary@4             1002c112 f   kernel32:KERNEL32.dll
 0001:0002b118       _GetModuleHandleA@4        1002c118 f   kernel32:KERNEL32.dll
 0001:0002b11e       _FindClose@4               1002c11e f   kernel32:KERNEL32.dll
 0001:0002b124       _FindFirstFileA@8          1002c124 f   kernel32:KERNEL32.dll
 0001:0002b12a       _GetParent@4               1002c12a f   user32:USER32.dll
 0001:0002b130       _MessageBoxExA@20          1002c130 f   user32:USER32.dll
 0001:0002b136       _GetAsyncKeyState@4        1002c136 f   user32:USER32.dll
 0001:0002b13c       _CommDlgExtendedError@0    1002c13c f   comdlg32:comdlg32.dll
 0001:0002b142       _GetOpenFileNameA@4        1002c142 f   comdlg32:comdlg32.dll
 0001:0002b188       _D3DXVec2Hermite@24        1002c188 f   d3dx8:d3dxmath.obj
 0001:0002b216       _D3DXVec2CatmullRom@24     1002c216 f   d3dx8:d3dxmath.obj
 0001:0002b2c5       _D3DXVec2BaryCentric@24    1002c2c5 f   d3dx8:d3dxmath.obj
 0001:0002b308       _D3DXVec2Transform@12      1002c308 f   d3dx8:d3dxmath.obj
 0001:0002b371       _D3DXVec2TransformNormal@12 1002c371 f   d3dx8:d3dxmath.obj
 0001:0002b3a6       _D3DXVec3Hermite@24        1002c3a6 f   d3dx8:d3dxmath.obj
 0001:0002b454       _D3DXVec3CatmullRom@24     1002c454 f   d3dx8:d3dxmath.obj
 0001:0002b525       _acosf                     1002c525 f i d3dx8:d3dxmath.obj
 0001:0002b52f       _atan2f                    1002c52f f i d3dx8:d3dxmath.obj
 0001:0002b53a       _D3DXVec3BaryCentric@24    1002c53a f   d3dx8:d3dxmath.obj
 0001:0002b597       _D3DXVec3Transform@12      1002c597 f   d3dx8:d3dxmath.obj
 0001:0002b622       _sinf                      1002c622 f i d3dx8:d3dxmath.obj
 0001:0002b629       _sqrtf                     1002c629 f i d3dx8:d3dxmath.obj
 0001:0002b630       ??0D3DXVECTOR3@@QAE@XZ     1002c630 f i d3dx8:d3dxmath.obj
 0001:0002b633       ??0D3DXQUATERNION@@QAE@XZ  1002c633 f i d3dx8:d3dxmath.obj
 0001:0002b636       ??0D3DXPLANE@@QAE@XZ       1002c636 f i d3dx8:d3dxmath.obj
 0001:0002b639       ??0D3DXVECTOR2@@QAE@MM@Z   1002c639 f i d3dx8:d3dxmath.obj
 0001:0002b64b       _D3DXVec3TransformNormal@12 1002c64b f   d3dx8:d3dxmath.obj
 0001:0002b6aa       ??_0D3DXVECTOR2@@QAEAAU0@M@Z 1002c6aa f i d3dx8:d3dxmath.obj
 0001:0002b6c1       ??KD3DXVECTOR2@@QBE?AU0@M@Z 1002c6c1 f i d3dx8:d3dxmath.obj
 0001:0002b6de       _D3DXVec4Cross@16          1002c6de f   d3dx8:d3dxmath.obj
 0001:0002b7ce       ??_0D3DXVECTOR3@@QAEAAU0@M@Z 1002c7ce f i d3dx8:d3dxmath.obj
 0001:0002b7ed       ??GD3DXVECTOR3@@QBE?AU0@ABU0@@Z 1002c7ed f i d3dx8:d3dxmath.obj
 0001:0002b810       ??KD3DXVECTOR3@@QBE?AU0@M@Z 1002c810 f i d3dx8:d3dxmath.obj
 0001:0002b838       _D3DXVec4Hermite@24        1002c838 f   d3dx8:d3dxmath.obj
 0001:0002b909       _D3DXVec4CatmullRom@24     1002c909 f   d3dx8:d3dxmath.obj
 0001:0002b9fc       ??0D3DXVECTOR4@@QAE@MMMM@Z 1002c9fc f i d3dx8:d3dxmath.obj
 0001:0002ba1c       _D3DXVec4BaryCentric@24    1002ca1c f   d3dx8:d3dxmath.obj
 0001:0002ba93       _D3DXVec4Transform@12      1002ca93 f   d3dx8:d3dxmath.obj
 0001:0002bb2c       _D3DXMatrixfDeterminant@4  1002cb2c f   d3dx8:d3dxmath.obj
 0001:0002bbf6       ??KD3DXVECTOR4@@QBE?AU0@M@Z 1002cbf6 f i d3dx8:d3dxmath.obj
 0001:0002bc23       _D3DXMatrixMultiply@12     1002cc23 f   d3dx8:d3dxmath.obj
 0001:0002bd06       _D3DXMatrixTranspose@8     1002cd06 f   d3dx8:d3dxmath.obj
 0001:0002bd73       _D3DXMatrixInverse@12      1002cd73 f   d3dx8:d3dxmath.obj
 0001:0002c100       _D3DXMatrixScaling@16      1002d100 f   d3dx8:d3dxmath.obj
 0001:0002c15c       _D3DXMatrixTranslation@16  1002d15c f   d3dx8:d3dxmath.obj
 0001:0002c1b8       _D3DXMatrixRotationX@8     1002d1b8 f   d3dx8:d3dxmath.obj
 0001:0002c232       _D3DXMatrixRotationY@8     1002d232 f   d3dx8:d3dxmath.obj
 0001:0002c2ad       _D3DXMatrixRotationZ@8     1002d2ad f   d3dx8:d3dxmath.obj
 0001:0002c329       ??0D3DXQUATERNION@@QAE@MMMM@Z 1002d329 f i d3dx8:d3dxmath.obj
 0001:0002c349       _D3DXMatrixRotationQuaternion@8 1002d349 f   d3dx8:d3dxmath.obj
 0001:0002c42b       ??_0D3DXQUATERNION@@QAEAAU0@M@Z 1002d42b f i d3dx8:d3dxmath.obj
 0001:0002c452       ??KD3DXQUATERNION@@QBE?AU0@M@Z 1002d452 f i d3dx8:d3dxmath.obj
 0001:0002c47f       ??0D3DXPLANE@@QAE@MMMM@Z   1002d47f f i d3dx8:d3dxmath.obj
 0001:0002c49f       ??GD3DXPLANE@@QBE?AU0@XZ   1002d49f f i d3dx8:d3dxmath.obj
 0001:0002c4c4       _D3DXMatrixAffineTransformation@20 1002d4c4 f   d3dx8:d3dxmath.obj
 0001:0002c5a0       _D3DXMatrixPerspectiveRH@20 1002d5a0 f   d3dx8:d3dxmath.obj
 0001:0002c60c       _D3DXMatrixPerspectiveLH@20 1002d60c f   d3dx8:d3dxmath.obj
 0001:0002c678       _D3DXMatrixPerspectiveFovRH@20 1002d678 f   d3dx8:d3dxmath.obj
 0001:0002c70c       _D3DXMatrixPerspectiveFovLH@20 1002d70c f   d3dx8:d3dxmath.obj
 0001:0002c7a0       ?D3DXVec2LengthSq@@YAMPBUD3DXVECTOR2@@@Z 1002d7a0 f i d3dx8:d3dxmath.obj
 0001:0002c7b8       _D3DXMatrixPerspectiveOffCenterRH@28 1002d7b8 f   d3dx8:d3dxmath.obj
 0001:0002c855       _D3DXMatrixPerspectiveOffCenterLH@28 1002d855 f   d3dx8:d3dxmath.obj
 0001:0002c8f6       _D3DXMatrixOrthoRH@20      1002d8f6 f   d3dx8:d3dxmath.obj
 0001:0002c968       ?D3DXVec3LengthSq@@YAMPBUD3DXVECTOR3@@@Z 1002d968 f i d3dx8:d3dxmath.obj
 0001:0002c98b       ?D3DXVec3Dot@@YAMPBUD3DXVECTOR3@@0@Z 1002d98b f i d3dx8:d3dxmath.obj
 0001:0002c9a8       _D3DXMatrixOrthoLH@20      1002d9a8 f   d3dx8:d3dxmath.obj
 0001:0002ca1c       ?D3DXVec3Subtract@@YAPAUD3DXVECTOR3@@PAU1@PBU1@1@Z 1002da1c f i d3dx8:d3dxmath.obj
 0001:0002ca41       _D3DXMatrixOrthoOffCenterRH@28 1002da41 f   d3dx8:d3dxmath.obj
 0001:0002cae3       _D3DXMatrixOrthoOffCenterLH@28 1002dae3 f   d3dx8:d3dxmath.obj
 0001:0002cb87       ?D3DXVec3Lerp@@YAPAUD3DXVECTOR3@@PAU1@PBU1@1M@Z 1002db87 f i d3dx8:d3dxmath.obj
 0001:0002cbbe       ?D3DXVec4LengthSq@@YAMPBUD3DXVECTOR4@@@Z 1002dbbe f i d3dx8:d3dxmath.obj
 0001:0002cbec       _D3DXQuaternionRotationMatrix@8 1002dbec f   d3dx8:d3dxmath.obj
 0001:0002cd20       ?D3DXQuaternionLengthSq@@YAMPBUD3DXQUATERNION@@@Z 1002dd20 f i d3dx8:d3dxmath.obj
 0001:0002cd4e       ?D3DXQuaternionDot@@YAMPBUD3DXQUATERNION@@0@Z 1002dd4e f i d3dx8:d3dxmath.obj
 0001:0002cd73       _D3DXQuaternionRotationYawPitchRoll@16 1002dd73 f   d3dx8:d3dxmath.obj
 0001:0002ce4c       _D3DXQuaternionMultiply@12 1002de4c f   d3dx8:d3dxmath.obj
 0001:0002cee2       ?D3DXQuaternionConjugate@@YAPAUD3DXQUATERNION@@PAU1@PBU1@@Z 1002dee2 f i d3dx8:d3dxmath.obj
 0001:0002cf07       ?D3DXPlaneDot@@YAMPBUD3DXPLANE@@PBUD3DXVECTOR4@@@Z 1002df07 f i d3dx8:d3dxmath.obj
 0001:0002cf2c       ?D3DXPlaneDotCoord@@YAMPBUD3DXPLANE@@PBUD3DXVECTOR3@@@Z 1002df2c f i d3dx8:d3dxmath.obj
 0001:0002cf4c       ?D3DXPlaneDotNormal@@YAMPBUD3DXPLANE@@PBUD3DXVECTOR3@@@Z 1002df4c f i d3dx8:d3dxmath.obj
 0001:0002cf69       _D3DXQuaternionNormalize@8 1002df69 f   d3dx8:d3dxmath.obj
 0001:0002cff5       _D3DXQuaternionInverse@8   1002dff5 f   d3dx8:d3dxmath.obj
 0001:0002d074       _D3DXQuaternionLn@8        1002e074 f   d3dx8:d3dxmath.obj
 0001:0002d0f4       _D3DXQuaternionExp@8       1002e0f4 f   d3dx8:d3dxmath.obj
 0001:0002d195       _D3DXQuaternionSlerp@16    1002e195 f   d3dx8:d3dxmath.obj
 0001:0002d26f       _D3DXQuaternionSquad@24    1002e26f f   d3dx8:d3dxmath.obj
 0001:0002d2c6       _D3DXQuaternionBaryCentric@24 1002e2c6 f   d3dx8:d3dxmath.obj
 0001:0002d352       _D3DXPlaneNormalize@8      1002e352 f   d3dx8:d3dxmath.obj
 0001:0002d3fc       _D3DXPlaneIntersectLine@16 1002e3fc f   d3dx8:d3dxmath.obj
 0001:0002d489       _D3DXPlaneFromPointNormal@12 1002e489 f   d3dx8:d3dxmath.obj
 0001:0002d4c1       _D3DXColorAdjustSaturation@12 1002e4c1 f   d3dx8:d3dxmath.obj
 0001:0002d519       _D3DXColorAdjustContrast@12 1002e519 f   d3dx8:d3dxmath.obj
 0001:0002d559       _D3DXVec2Normalize@8       1002e559 f   d3dx8:d3dxmath.obj
 0001:0002d5ed       _D3DXVec2TransformCoord@12 1002e5ed f   d3dx8:d3dxmath.obj
 0001:0002d698       _D3DXVec3Normalize@8       1002e698 f   d3dx8:d3dxmath.obj
 0001:0002d73f       _D3DXVec3TransformCoord@12 1002e73f f   d3dx8:d3dxmath.obj
 0001:0002d80f       _D3DXVec3Project@24        1002e80f f   d3dx8:d3dxmath.obj
 0001:0002d92c       _D3DXVec3Unproject@24      1002e92c f   d3dx8:d3dxmath.obj
 0001:0002da5a       _D3DXVec4Normalize@8       1002ea5a f   d3dx8:d3dxmath.obj
 0001:0002dae6       _D3DXMatrixRotationAxis@12 1002eae6 f   d3dx8:d3dxmath.obj
 0001:0002dbe8       _D3DXMatrixRotationYawPitchRoll@16 1002ebe8 f   d3dx8:d3dxmath.obj
 0001:0002dc21       _D3DXMatrixTransformation@28 1002ec21 f   d3dx8:d3dxmath.obj
 0001:0002de20       _D3DXMatrixLookAtRH@16     1002ee20 f   d3dx8:d3dxmath.obj
 0001:0002df26       _D3DXMatrixLookAtLH@16     1002ef26 f   d3dx8:d3dxmath.obj
 0001:0002e02c       _D3DXMatrixShadow@12       1002f02c f   d3dx8:d3dxmath.obj
 0001:0002e10a       _D3DXMatrixReflect@8       1002f10a f   d3dx8:d3dxmath.obj
 0001:0002e1c9       _D3DXQuaternionToAxisAngle@12 1002f1c9 f   d3dx8:d3dxmath.obj
 0001:0002e246       _D3DXQuaternionRotationAxis@12 1002f246 f   d3dx8:d3dxmath.obj
 0001:0002e2a2       _D3DXPlaneFromPoints@16    1002f2a2 f   d3dx8:d3dxmath.obj
 0001:0002e321       _D3DXPlaneTransform@12     1002f321 f   d3dx8:d3dxmath.obj
 0001:0002e39d       ??_GCD3DXFont@@QAEPAXI@Z   1002f39d f i d3dx8:d3dx8core.obj
 0001:0002e3b9       ??_GCD3DXSprite@@QAEPAXI@Z 1002f3b9 f i d3dx8:d3dx8core.obj
 0001:0002e3d5       ??_GCD3DXRenderToSurface@@QAEPAXI@Z 1002f3d5 f i d3dx8:d3dx8core.obj
 0001:0002e3f1       ??_GCD3DXRenderToEnvMap@@QAEPAXI@Z 1002f3f1 f i d3dx8:d3dx8core.obj
 0001:0002e40d       _D3DXAssembleShaderFromFileA@20 1002f40d f   d3dx8:d3dx8core.obj
 0001:0002e499       _D3DXAssembleShaderFromFileW@20 1002f499 f   d3dx8:d3dx8core.obj
 0001:0002e562       _D3DXAssembleShader@24     1002f562 f   d3dx8:d3dx8core.obj
 0001:0002e5c6       _D3DXGetFVFVertexSize@4    1002f5c6 f   d3dx8:d3dx8core.obj
 0001:0002e66e       _D3DXGetErrorStringA@12    1002f66e f   d3dx8:d3dx8core.obj
 0001:0002e8ac       _D3DXGetErrorStringW@12    1002f8ac f   d3dx8:d3dx8core.obj
 0001:0002e903       _D3DXCreateFontIndirect@12 1002f903 f   d3dx8:d3dx8core.obj
 0001:0002e977       _D3DXCreateSprite@8        1002f977 f   d3dx8:d3dx8core.obj
 0001:0002e9e1       _D3DXCreateRenderToSurface@28 1002f9e1 f   d3dx8:d3dx8core.obj
 0001:0002ea5b       _D3DXCreateRenderToEnvMap@24 1002fa5b f   d3dx8:d3dx8core.obj
 0001:0002ead2       _D3DXCreateFont@12         1002fad2 f   d3dx8:d3dx8core.obj
 0001:0002eb05       _IsEqualGUID               1002fb05 f i d3dx8:loadx.obj
 0001:0002eb1c       _==                        1002fb1c f i d3dx8:loadx.obj
 0001:0002eb33       ??0D3DXCOLOR@@QAE@XZ       1002fb33 f i d3dx8:loadx.obj
 0001:0002eb36       ?AddMaterial@@YAJPAUIDirectXFileSaveObject@@PBUD3DXMATERIAL@@KPAUIDirectXFileData@@@Z 1002fb36 f   d3dx8:loadx.obj
 0001:0002eced       ?AddVertexDuplicationIndices@@YAJPAUIDirectXFileSaveObject@@PAUID3DXMesh@@PBKPAUIDirectXFileData@@@Z 1002fced f   d3dx8:loadx.obj
 0001:0002edb6       ?AddFaceMaterials@@YAJPAUIDirectXFileSaveObject@@PAKKPBUD3DXMATERIAL@@KKPAUIDirectXFileData@@@Z 1002fdb6 f   d3dx8:loadx.obj
 0001:0002eea4       ??0D3DXCOLOR@@QAE@K@Z      1002fea4 f i d3dx8:loadx.obj
 0001:0002eefa       ??0D3DXCOLOR@@QAE@MMMM@Z   1002fefa f i d3dx8:loadx.obj
 0001:0002ef1a       ??BD3DXCOLOR@@QBEKXZ       1002ff1a f i d3dx8:loadx.obj
 0001:0002f01f       ?BNormal@DXCrackFVF@@QAE_NXZ 1003001f f i d3dx8:loadx.obj
 0001:0002f029       ?BDiffuse@DXCrackFVF@@QAE_NXZ 10030029 f i d3dx8:loadx.obj
 0001:0002f033       ?BSpecular@DXCrackFVF@@QAE_NXZ 10030033 f i d3dx8:loadx.obj
 0001:0002f03d       ?BTex1@DXCrackFVF@@QAE_NXZ 1003003d f i d3dx8:loadx.obj
 0001:0002f047       ?CWeights@DXCrackFVF@@QAEKXZ 10030047 f i d3dx8:loadx.obj
 0001:0002f04b       ?CTexCoords@DXCrackFVF@@QAEKXZ 1003004b f i d3dx8:loadx.obj
 0001:0002f04f       ??0DXCrackFVF@@QAE@K@Z     1003004f f i d3dx8:loadx.obj
 0001:0002f0ef       ?GetArrayElem@DXCrackFVF@@QAEPAEPAXK@Z 100300ef f i d3dx8:loadx.obj
 0001:0002f0fe       ?PvGetPosition@DXCrackFVF@@QAEPAUD3DXVECTOR3@@PAX@Z 100300fe f i d3dx8:loadx.obj
 0001:0002f105       ?PvGetNormal@DXCrackFVF@@QAEPAUD3DXVECTOR3@@PAX@Z 10030105 f i d3dx8:loadx.obj
 0001:0002f10f       ?ColorGetDiffuse@DXCrackFVF@@QAEKPAX@Z 1003010f f i d3dx8:loadx.obj
 0001:0002f11c       ?PuvGetTex1@DXCrackFVF@@QAEPAUD3DXVECTOR2@@PAX@Z 1003011c f i d3dx8:loadx.obj
 0001:0002f126       ?CbTexCoordSize@DXCrackFVF@@QAEKK@Z 10030126 f i d3dx8:loadx.obj
 0001:0002f14a       ?GetTexCoordSizes@DXCrackFVF@@QAEXPAK@Z 1003014a f i d3dx8:loadx.obj
 0001:0002f18b       ??_ECBone@@QAEPAXI@Z       1003018b f i d3dx8:loadx.obj
 0001:0002f1d6       ?AddNormals@@YAJPAUIDirectXFileSaveObject@@PAEKPAGPAKKAAVDXCrackFVF@@PAUIDirectXFileData@@@Z 100301d6 f   d3dx8:loadx.obj
 0001:0002f309       ?AddTextureCoordinates@@YAJPAUIDirectXFileSaveObject@@PAEKAAVDXCrackFVF@@PAUIDirectXFileData@@@Z 10030309 f   d3dx8:loadx.obj
 0001:0002f3cc       ?AddVertexColors@@YAJPAUIDirectXFileSaveObject@@PAEKAAVDXCrackFVF@@PAUIDirectXFileData@@@Z 100303cc f   d3dx8:loadx.obj
 0001:0002f4c9       ?AddOtherFVFData@@YAJPAUIDirectXFileSaveObject@@PAEKKAAVDXCrackFVF@@PAUIDirectXFileData@@@Z 100304c9 f   d3dx8:loadx.obj
 0001:0002f6c3       ?D3DXSaveMeshToXEx@@YGJPADPAUID3DXMesh@@PBKQAUD3DXMATERIAL@@KKPAEK@Z 100306c3 f   d3dx8:loadx.obj
 0001:0002fba1       _D3DXSaveMeshToX@24        10030ba1 f   d3dx8:loadx.obj
 0001:0002fbc3       ?DwCombineFVFs@@YAKKK@Z    10030bc3 f   d3dx8:loadx.obj
 0001:0002fc38       ?D3DXMergeMeshes@@YAJPAUID3DXMesh@@PAKPAUID3DXBuffer@@K012KPAUIDirect3DDevice8@@PAPAU1@PAPAU2@51@Z 10030c38 f   d3dx8:loadx.obj
 0001:00030180       ?D3DXLoadMeshFromXofEx@@YGJPAUIDirectXFileData@@KPAUIDirect3DDevice8@@PAPAUID3DXBuffer@@2PAKPAPAUID3DXMesh@@PAPAE322PAPAVCBone@@3@Z 10031180 f   d3dx8:loadx.obj
 0001:00031044       _D3DXLoadMeshFromXof@28    10032044 f   d3dx8:loadx.obj
 0001:0003106d       _D3DXCreatePMeshFromStream@24 1003206d f   d3dx8:loadx.obj
 0001:000312d2       _D3DXLoadSkinMeshFromXof@36 100322d2 f   d3dx8:loadx.obj
 0001:000313c1       ?LoadMeshes@@YAJPAUIDirectXFileData@@AAUD3DXMATRIX@@KPAUIDirect3DDevice8@@PAPAUID3DXMesh@@PAPAUID3DXBuffer@@4PAK@Z 100323c1 f   d3dx8:loadx.obj
 0001:00031720       _D3DXLoadMeshFromX@28      10032720 f   d3dx8:loadx.obj
 0001:00031da0       _D3DXLoadSurfaceFromMemory@40 10032da0 f   d3dx8:d3dx8tex.obj
 0001:00031fd6       _D3DXLoadVolumeFromMemory@44 10032fd6 f   d3dx8:d3dx8tex.obj
 0001:000321ec       _D3DXCheckTextureRequirements@28 100331ec f   d3dx8:d3dx8tex.obj
 0001:00032214       _D3DXCreateTexture@32      10033214 f   d3dx8:d3dx8tex.obj
 0001:0003227a       _D3DXCheckCubeTextureRequirements@24 1003327a f   d3dx8:d3dx8tex.obj
 0001:000322a2       _D3DXCreateCubeTexture@28  100332a2 f   d3dx8:d3dx8tex.obj
 0001:00032301       _D3DXCheckVolumeTextureRequirements@32 10033301 f   d3dx8:d3dx8tex.obj
 0001:0003232a       _D3DXCreateVolumeTexture@36 1003332a f   d3dx8:d3dx8tex.obj
 0001:00032397       _D3DXLoadSurfaceFromFileInMemory@36 10033397 f   d3dx8:d3dx8tex.obj
 0001:0003244d       _D3DXLoadSurfaceFromSurface@32 1003344d f   d3dx8:d3dx8tex.obj
 0001:0003256a       _D3DXLoadVolumeFromVolume@32 1003356a f   d3dx8:d3dx8tex.obj
 0001:0003269f       _D3DXFilterTexture@16      1003369f f   d3dx8:d3dx8tex.obj
 0001:000327d0       _D3DXFilterCubeTexture@16  100337d0 f   d3dx8:d3dx8tex.obj
 0001:00032922       _D3DXFilterVolumeTexture@16 10033922 f   d3dx8:d3dx8tex.obj
 0001:00032a68       _D3DXLoadSurfaceFromFileA@32 10033a68 f   d3dx8:d3dx8tex.obj
 0001:00032ab9       _D3DXLoadSurfaceFromFileW@32 10033ab9 f   d3dx8:d3dx8tex.obj
 0001:00032b0a       _D3DXLoadSurfaceFromResourceA@36 10033b0a f   d3dx8:d3dx8tex.obj
 0001:00032b5e       _D3DXLoadSurfaceFromResourceW@36 10033b5e f   d3dx8:d3dx8tex.obj
 0001:00032bb2       _D3DXCreateTextureFromFileInMemoryEx@60 10033bb2 f   d3dx8:d3dx8tex.obj
 0001:00032fc3       _D3DXCreateCubeTextureFromFileInMemoryEx@56 10033fc3 f   d3dx8:d3dx8tex.obj
 0001:00033405       _D3DXCreateTextureFromFileExA@56 10034405 f   d3dx8:d3dx8tex.obj
 0001:00033468       _D3DXCreateTextureFromFileExW@56 10034468 f   d3dx8:d3dx8tex.obj
 0001:000334cb       _D3DXCreateTextureFromResourceExA@60 100344cb f   d3dx8:d3dx8tex.obj
 0001:00033531       _D3DXCreateTextureFromResourceExW@60 10034531 f   d3dx8:d3dx8tex.obj
 0001:00033597       _D3DXCreateTextureFromFileInMemory@16 10034597 f   d3dx8:d3dx8tex.obj
 0001:000335c0       _D3DXCreateCubeTextureFromFileExA@52 100345c0 f   d3dx8:d3dx8tex.obj
 0001:00033620       _D3DXCreateCubeTextureFromFileExW@52 10034620 f   d3dx8:d3dx8tex.obj
 0001:00033680       _D3DXCreateCubeTextureFromFileInMemory@16 10034680 f   d3dx8:d3dx8tex.obj
 0001:000336a8       _D3DXCreateTextureFromFileA@12 100346a8 f   d3dx8:d3dx8tex.obj
 0001:000336cd       _D3DXCreateTextureFromFileW@12 100346cd f   d3dx8:d3dx8tex.obj
 0001:000336f2       _D3DXCreateTextureFromResourceA@16 100346f2 f   d3dx8:d3dx8tex.obj
 0001:0003371b       _D3DXCreateTextureFromResourceW@16 1003471b f   d3dx8:d3dx8tex.obj
 0001:00033744       _D3DXCreateCubeTextureFromFileA@12 10034744 f   d3dx8:d3dx8tex.obj
 0001:00033768       _D3DXCreateCubeTextureFromFileW@12 10034768 f   d3dx8:d3dx8tex.obj
 0001:0003378c       ??0IUnknown@@QAE@XZ        1003478c f i d3dx8:cd3dxfont.obj
 0001:0003378f       ??1CD3DXFont@@QAE@XZ       1003478f f   d3dx8:cd3dxfont.obj
 0001:000337c1       ?AddRef@CD3DXFont@@UAGKXZ  100347c1 f   d3dx8:cd3dxfont.obj
 0001:000337ce       ?Initialize@CD3DXFont@@QAEJPAUIDirect3DDevice8@@PBUtagLOGFONTA@@@Z 100347ce f   d3dx8:cd3dxfont.obj
 0001:00033820       ?GetDevice@CD3DXFont@@UAGJPAPAUIDirect3DDevice8@@@Z 10034820 f   d3dx8:cd3dxfont.obj
 0001:00033846       ?GetLogFont@CD3DXFont@@UAGJPAUtagLOGFONTA@@@Z 10034846 f   d3dx8:cd3dxfont.obj
 0001:0003386a       ?Begin@CD3DXFont@@UAGJXZ   1003486a f   d3dx8:cd3dxfont.obj
 0001:00033879       ?End@CD3DXFont@@UAGJXZ     10034879 f   d3dx8:cd3dxfont.obj
 0001:00033888       ?DrawTextA@CD3DXFont@@UAGHPBDHPAUtagRECT@@KK@Z 10034888 f   d3dx8:cd3dxfont.obj
 0001:000338ae       ?DrawTextW@CD3DXFont@@UAGHPBGHPAUtagRECT@@KK@Z 100348ae f   d3dx8:cd3dxfont.obj
 0001:000338d4       ??0ID3DXFont@@QAE@XZ       100348d4 f i d3dx8:cd3dxfont.obj
 0001:000338d7       ?QueryInterface@CD3DXFont@@UAGJABU_GUID@@PAPAX@Z 100348d7 f   d3dx8:cd3dxfont.obj
 0001:0003391b       ?Release@CD3DXFont@@UAGKXZ 1003491b f   d3dx8:cd3dxfont.obj
 0001:0003393c       ??0CD3DXFont@@QAE@XZ       1003493c f   d3dx8:cd3dxfont.obj
 0001:00033957       ??1CD3DXSprite@@QAE@XZ     10034957 f   d3dx8:cd3dxsprite.obj
 0001:00033997       ?AddRef@CD3DXSprite@@UAGKXZ 10034997 f   d3dx8:cd3dxsprite.obj
 0001:000339a4       ?Initialize@CD3DXSprite@@QAEJPAUIDirect3DDevice8@@@Z 100349a4 f   d3dx8:cd3dxsprite.obj
 0001:00033c2b       ?GetDevice@CD3DXSprite@@UAGJPAPAUIDirect3DDevice8@@@Z 10034c2b f   d3dx8:cd3dxsprite.obj
 0001:00033c51       ?Begin@CD3DXSprite@@UAGJXZ 10034c51 f   d3dx8:cd3dxsprite.obj
 0001:00033c8e       _cosf                      10034c8e f i d3dx8:cd3dxsprite.obj
 0001:00033c95       ??0D3DXVECTOR2@@QAE@XZ     10034c95 f i d3dx8:cd3dxsprite.obj
 0001:00033c98       ??0SPRITE_VERTEX@@QAE@XZ   10034c98 f i d3dx8:cd3dxsprite.obj
 0001:00033c9b       ?End@CD3DXSprite@@UAGJXZ   10034c9b f   d3dx8:cd3dxsprite.obj
 0001:00033cc6       ??0ID3DXSprite@@QAE@XZ     10034cc6 f i d3dx8:cd3dxsprite.obj
 0001:00033cc9       ?QueryInterface@CD3DXSprite@@UAGJABU_GUID@@PAPAX@Z 10034cc9 f   d3dx8:cd3dxsprite.obj
 0001:00033d0d       ?Release@CD3DXSprite@@UAGKXZ 10034d0d f   d3dx8:cd3dxsprite.obj
 0001:00033d2e       ?Draw@CD3DXSprite@@UAGJPAUIDirect3DTexture8@@PBUtagRECT@@PBUD3DXVECTOR2@@2M2K@Z 10034d2e f   d3dx8:cd3dxsprite.obj
 0001:00033e05       ?DrawTransform@CD3DXSprite@@UAGJPAUIDirect3DTexture8@@PBUtagRECT@@PBUD3DXMATRIX@@K@Z 10034e05 f   d3dx8:cd3dxsprite.obj
 0001:000340c4       ??0CD3DXSprite@@QAE@XZ     100350c4 f   d3dx8:cd3dxsprite.obj
 0001:000340e2       ??1CD3DXRenderToSurface@@QAE@XZ 100350e2 f   d3dx8:cd3dxrendertosurface.obj
 0001:00034165       ?Init@CD3DXRenderToSurface@@QAEJPAUIDirect3DDevice8@@IIW4_D3DFORMAT@@H1@Z 10035165 f   d3dx8:cd3dxrendertosurface.obj
 0001:000341b4       ?AddRef@CD3DXRenderToSurface@@UAGKXZ 100351b4 f   d3dx8:cd3dxrendertosurface.obj
 0001:000341c1       ?GetDevice@CD3DXRenderToSurface@@UAGJPAPAUIDirect3DDevice8@@@Z 100351c1 f   d3dx8:cd3dxrendertosurface.obj
 0001:000341e7       ?GetDesc@CD3DXRenderToSurface@@UAGJPAU_D3DXRTS_DESC@@@Z 100351e7 f   d3dx8:cd3dxrendertosurface.obj
 0001:0003420b       ?BeginScene@CD3DXRenderToSurface@@UAGJPAUIDirect3DSurface8@@PBU_D3DVIEWPORT8@@@Z 1003520b f   d3dx8:cd3dxrendertosurface.obj
 0001:000343d7       ?EndScene@CD3DXRenderToSurface@@UAGJXZ 100353d7 f   d3dx8:cd3dxrendertosurface.obj
 0001:0003448f       ??0ID3DXRenderToSurface@@QAE@XZ 1003548f f i d3dx8:cd3dxrendertosurface.obj
 0001:00034492       ?QueryInterface@CD3DXRenderToSurface@@UAGJABU_GUID@@PAPAX@Z 10035492 f   d3dx8:cd3dxrendertosurface.obj
 0001:000344d9       ?Release@CD3DXRenderToSurface@@UAGKXZ 100354d9 f   d3dx8:cd3dxrendertosurface.obj
 0001:00034502       ??0CD3DXRenderToSurface@@QAE@XZ 10035502 f   d3dx8:cd3dxrendertosurface.obj
 0001:00034529       ??1CD3DXRenderToEnvMap@@QAE@XZ 10035529 f   d3dx8:cd3dxrendertoenvmap.obj
 0001:000345e8       ?Init@CD3DXRenderToEnvMap@@QAEJPAUIDirect3DDevice8@@IW4_D3DFORMAT@@H1@Z 100355e8 f   d3dx8:cd3dxrendertoenvmap.obj
 0001:0003463c       ?Begin@CD3DXRenderToEnvMap@@QAEJXZ 1003563c f   d3dx8:cd3dxrendertoenvmap.obj
 0001:000346b4       ?BeginScene@CD3DXRenderToEnvMap@@QAEJW4_D3DCUBEMAP_FACES@@@Z 100356b4 f   d3dx8:cd3dxrendertoenvmap.obj
 0001:000347ec       ?EndScene@CD3DXRenderToEnvMap@@QAEJXZ 100357ec f   d3dx8:cd3dxrendertoenvmap.obj
 0001:0003485e       ?RenderSphere@CD3DXRenderToEnvMap@@QAEJXZ 1003585e f   d3dx8:cd3dxrendertoenvmap.obj
 0001:00034864       ?RenderHemisphere@CD3DXRenderToEnvMap@@QAEJXZ 10035864 f   d3dx8:cd3dxrendertoenvmap.obj
 0001:0003486a       ?RenderParabolic@CD3DXRenderToEnvMap@@QAEJXZ 1003586a f   d3dx8:cd3dxrendertoenvmap.obj
 0001:00034870       ?QueryInterface@CD3DXRenderToEnvMap@@UAGJABU_GUID@@PAPAX@Z 10035870 f   d3dx8:cd3dxrendertoenvmap.obj
 0001:000348b7       ?AddRef@CD3DXRenderToEnvMap@@UAGKXZ 100358b7 f   d3dx8:cd3dxrendertoenvmap.obj
 0001:000348c4       ?GetDevice@CD3DXRenderToEnvMap@@UAGJPAPAUIDirect3DDevice8@@@Z 100358c4 f   d3dx8:cd3dxrendertoenvmap.obj
 0001:000348ea       ?GetDesc@CD3DXRenderToEnvMap@@UAGJPAU_D3DXRTE_DESC@@@Z 100358ea f   d3dx8:cd3dxrendertoenvmap.obj
 0001:0003490d       ?BeginCube@CD3DXRenderToEnvMap@@UAGJPAUIDirect3DCubeTexture8@@@Z 1003590d f   d3dx8:cd3dxrendertoenvmap.obj
 0001:00034970       ?BeginSphere@CD3DXRenderToEnvMap@@UAGJPAUIDirect3DTexture8@@@Z 10035970 f   d3dx8:cd3dxrendertoenvmap.obj
 0001:000349b4       ?BeginHemisphere@CD3DXRenderToEnvMap@@UAGJPAUIDirect3DTexture8@@0@Z 100359b4 f   d3dx8:cd3dxrendertoenvmap.obj
 0001:00034a18       ?BeginParabolic@CD3DXRenderToEnvMap@@UAGJPAUIDirect3DTexture8@@0@Z 10035a18 f   d3dx8:cd3dxrendertoenvmap.obj
 0001:00034a81       ?Face@CD3DXRenderToEnvMap@@UAGJW4_D3DCUBEMAP_FACES@@@Z 10035a81 f   d3dx8:cd3dxrendertoenvmap.obj
 0001:00034aa4       ?End@CD3DXRenderToEnvMap@@UAGJXZ 10035aa4 f   d3dx8:cd3dxrendertoenvmap.obj
 0001:00034b72       ??0ID3DXRenderToEnvMap@@QAE@XZ 10035b72 f i d3dx8:cd3dxrendertoenvmap.obj
 0001:00034b75       ?Release@CD3DXRenderToEnvMap@@UAGKXZ 10035b75 f   d3dx8:cd3dxrendertoenvmap.obj
 0001:00034b9e       ??0CD3DXRenderToEnvMap@@QAE@XZ 10035b9e f   d3dx8:cd3dxrendertoenvmap.obj
 0001:00034be0       ??0CD3DXFile@@QAE@XZ       10035be0 f   d3dx8:cd3dxfile.obj
 0001:00034bf2       ?Open@CD3DXFile@@QAEJPBXH@Z 10035bf2 f   d3dx8:cd3dxfile.obj
 0001:00034d0b       ?Close@CD3DXFile@@QAEJXZ   10035d0b f   d3dx8:cd3dxfile.obj
 0001:00034d4c       ??1CD3DXFile@@QAE@XZ       10035d4c f   d3dx8:cd3dxfile.obj
 0001:00034d57       ??0CD3DXAssembler@@QAE@XZ  10035d57 f   d3dx8:cd3dxassembler.obj
 0001:00034df7       ??1CD3DXAssembler@@QAE@XZ  10035df7 f   d3dx8:cd3dxassembler.obj
 0001:00034e77       ??_GCD3DXBuffer@@QAEPAXI@Z 10035e77 f i d3dx8:cd3dxassembler.obj
 0001:00034e93       ?Error@CD3DXAssembler@@QAAXPADZZ 10035e93 f   d3dx8:cd3dxassembler.obj
 0001:00034f2f       ?DecodeOpcode@CD3DXAssembler@@QAEHXZ 10035f2f f   d3dx8:cd3dxassembler.obj
 0001:0003556c       ?DecodeMask@CD3DXAssembler@@QAEKPAD@Z 1003656c f   d3dx8:cd3dxassembler.obj
 0001:00035615       ?DecodeSwizzle@CD3DXAssembler@@QAEKPAD@Z 10036615 f   d3dx8:cd3dxassembler.obj
 0001:000356b6       ?DecodeRegister@CD3DXAssembler@@QAEKPADKH@Z 100366b6 f   d3dx8:cd3dxassembler.obj
 0001:00035a2c       ?ValidateDstRegister@CD3DXAssembler@@QAEXK@Z 10036a2c f   d3dx8:cd3dxassembler.obj
 0001:00035aba       ?ValidateSrcRegister@CD3DXAssembler@@QAEXK@Z 10036aba f   d3dx8:cd3dxassembler.obj
 0001:00035b3c       ?SetConstant@CD3DXAssembler@@QAEXKPAUD3DXVECTOR4@@@Z 10036b3c f   d3dx8:cd3dxassembler.obj
 0001:00035be5       ?UpdateDebugText@CD3DXAssembler@@QAEXXZ 10036be5 f   d3dx8:cd3dxassembler.obj
 0001:00035cbb       ?UpdateDebugFileLine@CD3DXAssembler@@QAEXXZ 10036cbb f   d3dx8:cd3dxassembler.obj
 0001:00035e13       ?Token@CD3DXAssembler@@QAEHXZ 10036e13 f   d3dx8:cd3dxassembler.obj
 0001:00036234       ?Production@CD3DXAssembler@@QAEXI@Z 10037234 f   d3dx8:cd3dxassembler.obj
 0001:000369e9       ?d3dxasm_parse@@YAHXZ      100379e9 f   d3dx8:cd3dxassembler.obj
 0001:00036e93       ?Assemble@CD3DXAssembler@@QAEJPBXIPBDIKPAPAUID3DXBuffer@@22@Z 10037e93 f   d3dx8:cd3dxassembler.obj
 0001:0003732a       ??0SFaceCorner@@QAE@KK@Z   1003832a f i d3dx8:createmesh.obj
 0001:0003733c       ??0SFaceCorner@@QAE@XZ     1003833c f i d3dx8:createmesh.obj
 0001:00037346       ??0CPMSharedData@@QAE@XZ   10038346 f i d3dx8:createmesh.obj
 0001:0003735e       ?AddRef@CPMSharedData@@UAGKXZ 1003835e f i d3dx8:createmesh.obj
 0001:0003736f       ?READ_DWORD@@YAHAAPAE@Z    1003836f f i d3dx8:createmesh.obj
 0001:0003737d       ??0CD3DXBitField256@@QAE@XZ 1003837d f i d3dx8:createmesh.obj
 0001:0003738d       ?Set@CD3DXBitField256@@QAEXK@Z 1003838d f i d3dx8:createmesh.obj
 0001:000373a8       ?IsSet@CD3DXBitField256@@QAEHK@Z 100383a8 f i d3dx8:createmesh.obj
 0001:000373c3       ?IsSubset@CD3DXBitField256@@QAEHAAV1@@Z 100383c3 f i d3dx8:createmesh.obj
 0001:00037431       ?Or@CD3DXBitField256@@QAEXAAV1@0@Z 10038431 f i d3dx8:createmesh.obj
 0001:00037483       ?And@CD3DXBitField256@@QAEXAAV1@0@Z 10038483 f i d3dx8:createmesh.obj
 0001:000374d5       ?Count@CD3DXBitField256@@QAEKXZ 100384d5 f i d3dx8:createmesh.obj
 0001:000374f9       ??0CBone@@QAE@XZ           100384f9 f   d3dx8:createmesh.obj
 0001:00037506       ??1CBone@@QAE@XZ           10038506 f   d3dx8:createmesh.obj
 0001:00037525       ??YD3DXVECTOR3@@QAEAAU0@ABU0@@Z 10038525 f i d3dx8:createmesh.obj
 0001:00037546       ?QueryInterface@CD3DXSkinMesh@@UAGJABU_GUID@@PAPAX@Z 10038546 f   d3dx8:createmesh.obj
 0001:0003758d       ??ZD3DXVECTOR3@@QAEAAU0@ABU0@@Z 1003858d f i d3dx8:createmesh.obj
 0001:000375ae       ??XD3DXVECTOR3@@QAEAAU0@M@Z 100385ae f i d3dx8:createmesh.obj
 0001:000375cf       ?AddRef@CD3DXSkinMesh@@UAGKXZ 100385cf f   d3dx8:createmesh.obj
 0001:000375dc       ?Init@CD3DXSkinMesh@@QAEJK@Z 100385dc f   d3dx8:createmesh.obj
 0001:000376f1       ?Init@CD3DXSkinMesh@@QAEJPAUID3DXMesh@@K@Z 100386f1 f   d3dx8:createmesh.obj
 0001:0003773d       ?Init@CD3DXSkinMesh@@QAEJPAUID3DXMesh@@PAVCBone@@K@Z 1003873d f   d3dx8:createmesh.obj
 0001:00037754       ?SetBoneInfluence@CD3DXSkinMesh@@UAGJKKPBKPBM@Z 10038754 f   d3dx8:createmesh.obj
 0001:00037821       ?GetVertexBuffer@CD3DXSkinMesh@@UAGJPAPAUIDirect3DVertexBuffer8@@@Z 10038821 f   d3dx8:createmesh.obj
 0001:00037835       ?GetIndexBuffer@CD3DXSkinMesh@@UAGJPAPAUIDirect3DIndexBuffer8@@@Z 10038835 f   d3dx8:createmesh.obj
 0001:00037849       ?LockVertexBuffer@CD3DXSkinMesh@@UAGJKPAPAE@Z 10038849 f   d3dx8:createmesh.obj
 0001:00037861       ??0D3DXMATRIX@@QAE@MMMMMMMMMMMMMMMM@Z 10038861 f i d3dx8:createmesh.obj
 0001:000378c9       ?UnlockVertexBuffer@CD3DXSkinMesh@@UAGJXZ 100388c9 f   d3dx8:createmesh.obj
 0001:000378d9       ?LockIndexBuffer@CD3DXSkinMesh@@UAGJKPAPAE@Z 100388d9 f   d3dx8:createmesh.obj
 0001:000378fc       ?UnlockIndexBuffer@CD3DXSkinMesh@@UAGJXZ 100388fc f   d3dx8:createmesh.obj
 0001:0003790c       ?LockAttributeBuffer@CD3DXSkinMesh@@UAGJKPAPAK@Z 1003890c f   d3dx8:createmesh.obj
 0001:00037924       ?UnlockAttributeBuffer@CD3DXSkinMesh@@UAGJXZ 10038924 f   d3dx8:createmesh.obj
 0001:00037934       ?GetDevice@CD3DXSkinMesh@@UAGJPAPAUIDirect3DDevice8@@@Z 10038934 f   d3dx8:createmesh.obj
 0001:00037948       ?GetNumBones@CD3DXSkinMesh@@UAGKXZ 10038948 f   d3dx8:createmesh.obj
 0001:00037952       ?GetOriginalMesh@CD3DXSkinMesh@@UAGJPAPAUID3DXMesh@@@Z 10038952 f   d3dx8:createmesh.obj
 0001:0003796f       ??YD3DXMATRIX@@QAEAAU0@ABU0@@Z 1003896f f i d3dx8:createmesh.obj
 0001:00037a05       ?GetNumFaces@CD3DXSkinMesh@@UAGKXZ 10038a05 f   d3dx8:createmesh.obj
 0001:00037a15       ?GetNumVertices@CD3DXSkinMesh@@UAGKXZ 10038a15 f   d3dx8:createmesh.obj
 0001:00037a25       ?GetFVF@CD3DXSkinMesh@@UAGKXZ 10038a25 f   d3dx8:createmesh.obj
 0001:00037a35       ?GetDeclaration@CD3DXSkinMesh@@UAGJQAK@Z 10038a35 f   d3dx8:createmesh.obj
 0001:00037a49       ?GetOptions@CD3DXSkinMesh@@UAGKXZ 10038a49 f   d3dx8:createmesh.obj
 0001:00037a59       ?CalcVertexSkinData@CD3DXSkinMesh@@QAEJXZ 10038a59 f   d3dx8:createmesh.obj
 0001:00037bd9       ?TruncVertexSkinData@CD3DXSkinMesh@@QAEJKPAK@Z 10038bd9 f   d3dx8:createmesh.obj
 0001:00037de0       ??DD3DXMATRIX@@QBE?AU0@M@Z 10038de0 f i d3dx8:createmesh.obj
 0001:00037e83       ?GreedyTSP@@YAJPAUSBoneCombinationNode@@PAPAU1@PAK2@Z 10038e83 f   d3dx8:createmesh.obj
 0001:00037f99       ?D3DXVec3Length@@YAMPBUD3DXVECTOR3@@@Z 10038f99 f i d3dx8:createmesh.obj
 0001:00037fbe       ??0SBoneCombinationNode@@QAE@XZ 10038fbe f i d3dx8:createmesh.obj
 0001:00037fcf       ?GetNumBoneInfluences@CD3DXSkinMesh@@UAGKK@Z 10038fcf f   d3dx8:createmesh.obj
 0001:00037fec       ?GetBoneInfluence@CD3DXSkinMesh@@UAGJKPAKPAM@Z 10038fec f   d3dx8:createmesh.obj
 0001:00038050       ?GetMaxVertexInfluences@CD3DXSkinMesh@@UAGJPAK@Z 10039050 f   d3dx8:createmesh.obj
 0001:000380ea       ?BPointSize@DXCrackFVF@@QAE_NXZ 100390ea f i d3dx8:createmesh.obj
 0001:000380f4       ?GenerateCodes@CD3DXSkinMesh@@AAEJXZ 100390f4 f   d3dx8:createmesh.obj
 0001:00038356       ?BIndexedWeights@DXCrackFVF@@QAEHXZ 10039356 f i d3dx8:createmesh.obj
 0001:0003835e       ?SetPosition@DXCrackFVF@@QAEXPAXPAUD3DXVECTOR3@@@Z 1003935e f i d3dx8:createmesh.obj
 0001:00038370       ?SetNormal@DXCrackFVF@@QAEXPAXPAUD3DXVECTOR3@@@Z 10039370 f i d3dx8:createmesh.obj
 0001:0003838c       ?SetPointSize@DXCrackFVF@@QAEXPAXM@Z 1003938c f i d3dx8:createmesh.obj
 0001:000383a1       ?SetDiffuse@DXCrackFVF@@QAEXPAXK@Z 100393a1 f i d3dx8:createmesh.obj
 0001:000383b6       ?SetSpecular@DXCrackFVF@@QAEXPAXK@Z 100393b6 f i d3dx8:createmesh.obj
 0001:000383cb       ?SetWeight@DXCrackFVF@@QAEXPAXIM@Z 100393cb f i d3dx8:createmesh.obj
 0001:000383e3       ?FGetPointSize@DXCrackFVF@@QAEMPAX@Z 100393e3 f i d3dx8:createmesh.obj
 0001:000383f0       ?ColorGetSpecular@DXCrackFVF@@QAEKPAX@Z 100393f0 f i d3dx8:createmesh.obj
 0001:000383fd       ?PfGetWeights@DXCrackFVF@@QAEPAMPAX@Z 100393fd f i d3dx8:createmesh.obj
 0001:00038407       ?UpdateSkinnedMesh@CD3DXSkinMesh@@UAGJPBUD3DXMATRIX@@PAUID3DXMesh@@@Z 10039407 f   d3dx8:createmesh.obj
 0001:000387bb       ??0CQuadric@@QAE@XZ        100397bb f i d3dx8:createmesh.obj
 0001:000387be       ??1CQuadric@@QAE@XZ        100397be f i d3dx8:createmesh.obj
 0001:000387bf       ?IntersectTriUnbounded@@YAXPAUD3DXVECTOR3@@0000PAM11@Z 100397bf f   d3dx8:createmesh.obj
 0001:00038919       _D3DXComputeBoundingSphere@20 10039919 f   d3dx8:createmesh.obj
 0001:00038a29       _D3DXComputeBoundingBox@20 10039a29 f   d3dx8:createmesh.obj
 0001:00038b40       _D3DXComputeNormals@4      10039b40 f   d3dx8:createmesh.obj
 0001:00038db7       _D3DXDeclaratorFromFVF@8   10039db7 f   d3dx8:createmesh.obj
 0001:00038e92       _D3DXFVFFromDeclarator@8   10039e92 f   d3dx8:createmesh.obj
 0001:00038fb0       ?CmpFunc@@YAHPBX0@Z        10039fb0 f   d3dx8:createmesh.obj
 0001:00038fbd       ?GenerateWedgeList@@YAJPAKKPAH0@Z 10039fbd f   d3dx8:createmesh.obj
 0001:0003901c       ?BFloatsEqual@@YAHMMM@Z    1003a01c f   d3dx8:createmesh.obj
 0001:00039054       ?BEqualVertices@@YAHAAVDXCrackFVF@@MPAE1@Z 1003a054 f   d3dx8:createmesh.obj
 0001:000391b4       _D3DXWeldVertices@24       1003a1b4 f   d3dx8:createmesh.obj
 0001:00039478       ?LockIB@?$GXTri3Mesh@G$00$0PPPP@@@QAEJPAPAE@Z 1003a478 f i d3dx8:createmesh.obj
 0001:00039491       ?UnlockIB@?$GXTri3Mesh@G$00$0PPPP@@@QAEJXZ 1003a491 f i d3dx8:createmesh.obj
 0001:0003949b       ??1?$GXTri3Mesh@G$00$0PPPP@@@QAE@XZ 1003a49b f i d3dx8:createmesh.obj
 0001:00039515       ?AddRef@?$GXTri3Mesh@G$00$0PPPP@@@UAGKXZ 1003a515 f i d3dx8:createmesh.obj
 0001:00039531       ?GetDevice@?$GXTri3Mesh@G$00$0PPPP@@@UAGJPAPAUIDirect3DDevice8@@@Z 1003a531 f i d3dx8:createmesh.obj
 0001:0003955b       ?LockVertexBuffer@?$GXTri3Mesh@G$00$0PPPP@@@UAGJKPAPAE@Z 1003a55b f i d3dx8:createmesh.obj
 0001:0003957e       ?UnlockVertexBuffer@?$GXTri3Mesh@G$00$0PPPP@@@UAGJXZ 1003a57e f i d3dx8:createmesh.obj
 0001:0003958e       ?LockIndexBuffer@?$GXTri3Mesh@G$00$0PPPP@@@UAGJKPAPAE@Z 1003a58e f i d3dx8:createmesh.obj
 0001:000395b1       ?UnlockIndexBuffer@?$GXTri3Mesh@G$00$0PPPP@@@UAGJXZ 1003a5b1 f i d3dx8:createmesh.obj
 0001:000395c1       ?LockAttributeBuffer@?$GXTri3Mesh@G$00$0PPPP@@@UAGJKPAPAK@Z 1003a5c1 f i d3dx8:createmesh.obj
 0001:000395f1       ?UnlockAttributeBuffer@?$GXTri3Mesh@G$00$0PPPP@@@UAGJXZ 1003a5f1 f i d3dx8:createmesh.obj
 0001:000395f6       ?QueryInterface@?$GXTri3Mesh@G$00$0PPPP@@@UAGJABU_GUID@@PAPAX@Z 1003a5f6 f i d3dx8:createmesh.obj
 0001:00039664       ?GetNumFaces@?$GXTri3Mesh@G$00$0PPPP@@@UAGKXZ 1003a664 f i d3dx8:createmesh.obj
 0001:0003966e       ?GetNumVertices@?$GXTri3Mesh@G$00$0PPPP@@@UAGKXZ 1003a66e f i d3dx8:createmesh.obj
 0001:00039678       ?GetFVF@?$GXTri3Mesh@G$00$0PPPP@@@UAGKXZ 1003a678 f i d3dx8:createmesh.obj
 0001:00039682       ?GetDeclaration@?$GXTri3Mesh@G$00$0PPPP@@@UAGJQAK@Z 1003a682 f i d3dx8:createmesh.obj
 0001:00039695       ?GetOptions@?$GXTri3Mesh@G$00$0PPPP@@@UAGKXZ 1003a695 f i d3dx8:createmesh.obj
 0001:0003969f       ?CloneMesh@?$GXTri3Mesh@G$00$0PPPP@@@UAGJKPBKPAUIDirect3DDevice8@@PAPAUID3DXMesh@@@Z 1003a69f f i d3dx8:createmesh.obj
 0001:000396d9       ?GetVertexBuffer@?$GXTri3Mesh@G$00$0PPPP@@@UAGJPAPAUIDirect3DVertexBuffer8@@@Z 1003a6d9 f i d3dx8:createmesh.obj
 0001:000396ff       ?GetIndexBuffer@?$GXTri3Mesh@G$00$0PPPP@@@UAGJPAPAUIDirect3DIndexBuffer8@@@Z 1003a6ff f i d3dx8:createmesh.obj
 0001:00039725       ?GetAttributeTable@?$GXTri3Mesh@G$00$0PPPP@@@UAGJPAU_D3DXATTRIBUTERANGE@@PAK@Z 1003a725 f i d3dx8:createmesh.obj
 0001:00039765       ?ConvertPointRepsToAdjacency@?$GXTri3Mesh@G$00$0PPPP@@@UAGJPBKPAK@Z 1003a765 f i d3dx8:createmesh.obj
 0001:000399c6       ?HashFind@@YAKKKPAPAUhashentry@@KK@Z 1003a9c6 f i d3dx8:createmesh.obj
 0001:00039a17       ?CollectAttributeIds@?$GXTri3Mesh@G$00$0PPPP@@@AAEJPAPAKPAK@Z 1003aa17 f i d3dx8:createmesh.obj
 0001:00039b47       ??1?$GXTri3Mesh@I$0A@$0?0@@QAE@XZ 1003ab47 f i d3dx8:createmesh.obj
 0001:00039bc1       ?AddRef@?$GXTri3Mesh@I$0A@$0?0@@UAGKXZ 1003abc1 f i d3dx8:createmesh.obj
 0001:00039bdd       ?GetDevice@?$GXTri3Mesh@I$0A@$0?0@@UAGJPAPAUIDirect3DDevice8@@@Z 1003abdd f i d3dx8:createmesh.obj
 0001:00039c07       ?LockVertexBuffer@?$GXTri3Mesh@I$0A@$0?0@@UAGJKPAPAE@Z 1003ac07 f i d3dx8:createmesh.obj
 0001:00039c2a       ?UnlockVertexBuffer@?$GXTri3Mesh@I$0A@$0?0@@UAGJXZ 1003ac2a f i d3dx8:createmesh.obj
 0001:00039c3a       ?LockIndexBuffer@?$GXTri3Mesh@I$0A@$0?0@@UAGJKPAPAE@Z 1003ac3a f i d3dx8:createmesh.obj
 0001:00039c5d       ?UnlockIndexBuffer@?$GXTri3Mesh@I$0A@$0?0@@UAGJXZ 1003ac5d f i d3dx8:createmesh.obj
 0001:00039c6d       ?LockAttributeBuffer@?$GXTri3Mesh@I$0A@$0?0@@UAGJKPAPAK@Z 1003ac6d f i d3dx8:createmesh.obj
 0001:00039c9d       ?UnlockAttributeBuffer@?$GXTri3Mesh@I$0A@$0?0@@UAGJXZ 1003ac9d f i d3dx8:createmesh.obj
 0001:00039ca2       ?QueryInterface@?$GXTri3Mesh@I$0A@$0?0@@UAGJABU_GUID@@PAPAX@Z 1003aca2 f i d3dx8:createmesh.obj
 0001:00039d10       ?GetNumFaces@?$GXTri3Mesh@I$0A@$0?0@@UAGKXZ 1003ad10 f i d3dx8:createmesh.obj
 0001:00039d1a       ?GetNumVertices@?$GXTri3Mesh@I$0A@$0?0@@UAGKXZ 1003ad1a f i d3dx8:createmesh.obj
 0001:00039d24       ?GetFVF@?$GXTri3Mesh@I$0A@$0?0@@UAGKXZ 1003ad24 f i d3dx8:createmesh.obj
 0001:00039d2e       ?GetDeclaration@?$GXTri3Mesh@I$0A@$0?0@@UAGJQAK@Z 1003ad2e f i d3dx8:createmesh.obj
 0001:00039d41       ?GetOptions@?$GXTri3Mesh@I$0A@$0?0@@UAGKXZ 1003ad41 f i d3dx8:createmesh.obj
 0001:00039d4b       ?CloneMesh@?$GXTri3Mesh@I$0A@$0?0@@UAGJKPBKPAUIDirect3DDevice8@@PAPAUID3DXMesh@@@Z 1003ad4b f i d3dx8:createmesh.obj
 0001:00039d85       ?GetVertexBuffer@?$GXTri3Mesh@I$0A@$0?0@@UAGJPAPAUIDirect3DVertexBuffer8@@@Z 1003ad85 f i d3dx8:createmesh.obj
 0001:00039dab       ?GetIndexBuffer@?$GXTri3Mesh@I$0A@$0?0@@UAGJPAPAUIDirect3DIndexBuffer8@@@Z 1003adab f i d3dx8:createmesh.obj
 0001:00039dd1       ?GetAttributeTable@?$GXTri3Mesh@I$0A@$0?0@@UAGJPAU_D3DXATTRIBUTERANGE@@PAK@Z 1003add1 f i d3dx8:createmesh.obj
 0001:00039e11       ??0ID3DXSPMesh@@QAE@XZ     1003ae11 f i d3dx8:createmesh.obj
 0001:00039e14       ??0ID3DXBaseMesh@@QAE@XZ   1003ae14 f i d3dx8:createmesh.obj
 0001:00039e17       ?LockVB@?$GXTri3Mesh@G$00$0PPPP@@@QAEJPAPAE@Z 1003ae17 f i d3dx8:createmesh.obj
 0001:00039e30       ?UnlockVB@?$GXTri3Mesh@G$00$0PPPP@@@QAEJXZ 1003ae30 f i d3dx8:createmesh.obj
 0001:00039e3a       ?BHasNeighborData@?$GXTri3Mesh@G$00$0PPPP@@@ABEIXZ 1003ae3a f i d3dx8:createmesh.obj
 0001:00039e41       ?BHasPointRepData@?$GXTri3Mesh@G$00$0PPPP@@@ABEIXZ 1003ae41 f i d3dx8:createmesh.obj
 0001:00039e48       ?BHasPerFaceAttributeId@?$GXTri3Mesh@G$00$0PPPP@@@ABEIXZ 1003ae48 f i d3dx8:createmesh.obj
 0001:00039e4f       ?BHasPerFaceAttributeIndex@?$GXTri3Mesh@G$00$0PPPP@@@ABEIXZ 1003ae4f f i d3dx8:createmesh.obj
 0001:00039e56       ?BHasAttributeTable@?$GXTri3Mesh@G$00$0PPPP@@@ABEIXZ 1003ae56 f i d3dx8:createmesh.obj
 0001:00039e5d       ?BSharedVB@?$GXTri3Mesh@G$00$0PPPP@@@ABEIXZ 1003ae5d f i d3dx8:createmesh.obj
 0001:00039e64       ?WGetPointRep@?$GXTri3Mesh@G$00$0PPPP@@@ABEGG@Z 1003ae64 f i d3dx8:createmesh.obj
 0001:00039e73       ?LockVB@?$GXTri3Mesh@I$0A@$0?0@@QAEJPAPAE@Z 1003ae73 f i d3dx8:createmesh.obj
 0001:00039e8c       ?UnlockVB@?$GXTri3Mesh@I$0A@$0?0@@QAEJXZ 1003ae8c f i d3dx8:createmesh.obj
 0001:00039e96       ?LockIB@?$GXTri3Mesh@I$0A@$0?0@@QAEJPAPAE@Z 1003ae96 f i d3dx8:createmesh.obj
 0001:00039eaf       ?UnlockIB@?$GXTri3Mesh@I$0A@$0?0@@QAEJXZ 1003aeaf f i d3dx8:createmesh.obj
 0001:00039eb9       ?BHasNeighborData@?$GXTri3Mesh@I$0A@$0?0@@ABEIXZ 1003aeb9 f i d3dx8:createmesh.obj
 0001:00039ec0       ?BHasPointRepData@?$GXTri3Mesh@I$0A@$0?0@@ABEIXZ 1003aec0 f i d3dx8:createmesh.obj
 0001:00039ec7       ?BHasPerFaceAttributeId@?$GXTri3Mesh@I$0A@$0?0@@ABEIXZ 1003aec7 f i d3dx8:createmesh.obj
 0001:00039ece       ?BHasPerFaceAttributeIndex@?$GXTri3Mesh@I$0A@$0?0@@ABEIXZ 1003aece f i d3dx8:createmesh.obj
 0001:00039ed5       ?BHasAttributeTable@?$GXTri3Mesh@I$0A@$0?0@@ABEIXZ 1003aed5 f i d3dx8:createmesh.obj
 0001:00039edc       ?BSharedVB@?$GXTri3Mesh@I$0A@$0?0@@ABEIXZ 1003aedc f i d3dx8:createmesh.obj
 0001:00039ee3       ?WGetPointRep@?$GXTri3Mesh@I$0A@$0?0@@ABEII@Z 1003aee3 f i d3dx8:createmesh.obj
 0001:00039ef0       ??0?$NeighborInfo@G@@QAE@XZ 1003aef0 f i d3dx8:createmesh.obj
 0001:00039ef3       ??0?$CFaceListIter@G$00$0PPPP@@@QAE@PAV?$GXTri3Mesh@G$00$0PPPP@@@@Z 1003aef3 f i d3dx8:createmesh.obj
 0001:00039f18       ?BEndOfList@?$CFaceListIter@G$00$0PPPP@@@QAE_NXZ 1003af18 f i d3dx8:createmesh.obj
 0001:00039f24       ?IGetPointIndex@?$CFaceListIter@G$00$0PPPP@@@QBEGXZ 1003af24 f i d3dx8:createmesh.obj
 0001:00039f38       ??0?$NeighborInfo@I@@QAE@XZ 1003af38 f i d3dx8:createmesh.obj
 0001:00039f3b       ??0?$CFaceListIter@I$0A@$0?0@@QAE@PAV?$GXTri3Mesh@I$0A@$0?0@@@Z 1003af3b f i d3dx8:createmesh.obj
 0001:00039f5a       ?BEndOfList@?$CFaceListIter@I$0A@$0?0@@QAE_NXZ 1003af5a f i d3dx8:createmesh.obj
 0001:00039f64       ?IGetPointIndex@?$CFaceListIter@I$0A@$0?0@@QBEIXZ 1003af64 f i d3dx8:createmesh.obj
 0001:00039f78       ?FindWedge@?$GXTri3Mesh@G$00$0PPPP@@@ABEIPAGI@Z 1003af78 f i d3dx8:createmesh.obj
 0001:00039fac       ?FindWedge@?$GXTri3Mesh@I$0A@$0?0@@ABEIPAII@Z 1003afac f i d3dx8:createmesh.obj
 0001:00039fd5       ?ResizeDynamicArray@@YAHPAPAV?$NeighborInfo@G@@IIPAI@Z 1003afd5 f i d3dx8:createmesh.obj
 0001:0003a060       ?ResizeDynamicArray@@YAHPAPAKIIPAI@Z 1003b060 f i d3dx8:createmesh.obj
 0001:0003a0e9       ?ResizeDynamicArray@@YAHPAPAGIIPAI@Z 1003b0e9 f i d3dx8:createmesh.obj
 0001:0003a16f       ?FindEdge@@YAIPAGG@Z       1003b16f f i d3dx8:createmesh.obj
 0001:0003a187       ?ResizeDynamicArray@@YAHPAPAV?$NeighborInfo@I@@IIPAI@Z 1003b187 f i d3dx8:createmesh.obj
 0001:0003a214       ?ResizeDynamicArray@@YAHPAPAIIIPAI@Z 1003b214 f i d3dx8:createmesh.obj
 0001:0003a29d       ?FindEdge@@YAIPAII@Z       1003b29d f i d3dx8:createmesh.obj
 0001:0003a2b3       ?GenerateWedgeList@?$GXSimplifyMesh@I$0A@$0?0@@AAEJXZ 1003b2b3 f i d3dx8:createmesh.obj
 0001:0003a346       ?AllocateVSplitRecords@?$GXSimplifyMesh@I$0A@$0?0@@AAEJXZ 1003b346 f i d3dx8:createmesh.obj
 0001:0003a509       ?SetupWeightInfo@?$GXSimplifyMesh@I$0A@$0?0@@AAEJQAU_D3DXATTRIBUTEWEIGHTS@@PBMPAE@Z 1003b509 f i d3dx8:createmesh.obj
 0001:0003a7eb       ?GenerateWedgeList@?$GXSimplifyMesh@G$00$0PPPP@@@AAEJXZ 1003b7eb f i d3dx8:createmesh.obj
 0001:0003a897       ?AllocateVSplitRecords@?$GXSimplifyMesh@G$00$0PPPP@@@AAEJXZ 1003b897 f i d3dx8:createmesh.obj
 0001:0003aa5b       ?SetupWeightInfo@?$GXSimplifyMesh@G$00$0PPPP@@@AAEJQAU_D3DXATTRIBUTEWEIGHTS@@PBMPAE@Z 1003ba5b f i d3dx8:createmesh.obj
 0001:0003ad3d       ??_ECQuadric@@QAEPAXI@Z    1003bd3d f i d3dx8:createmesh.obj
 0001:0003ad81       ??0?$CFaceListIter@G$00$0PPPP@@@QAE@GGPAV?$GXTri3Mesh@G$00$0PPPP@@@E@Z 1003bd81 f i d3dx8:createmesh.obj
 0001:0003ae1a       ??0?$CFaceListIter@I$0A@$0?0@@QAE@IIPAV?$GXTri3Mesh@I$0A@$0?0@@E@Z 1003be1a f i d3dx8:createmesh.obj
 0001:0003ae92       ??0?$CSimplificationHeap@I@@QAE@XZ 1003be92 f i d3dx8:createmesh.obj
 0001:0003ae9c       ??0?$CSimplificationHeap@G@@QAE@XZ 1003be9c f i d3dx8:createmesh.obj
 0001:0003aea6       ??0?$CEdgeInfo@I@@QAE@IIMAAUD3DXVECTOR3@@@Z 1003bea6 f i d3dx8:createmesh.obj
 0001:0003aebf       ?SetHeapIndex@?$CEdgeInfo@I@@QAEXI@Z 1003bebf f i d3dx8:createmesh.obj
 0001:0003aec9       ??0?$CEdgeInfo@G@@QAE@GGMAAUD3DXVECTOR3@@@Z 1003bec9 f i d3dx8:createmesh.obj
 0001:0003aee6       ?SetHeapIndex@?$CEdgeInfo@G@@QAEXI@Z 1003bee6 f i d3dx8:createmesh.obj
 0001:0003aef0       ?Compact@?$GXTri3Mesh@G$00$0PPPP@@@AAEJPAI00@Z 1003bef0 f i d3dx8:createmesh.obj
 0001:0003afe0       ?AttributeSort@?$GXTri3Mesh@G$00$0PPPP@@@AAEJPAI00H@Z 1003bfe0 f i d3dx8:createmesh.obj
 0001:0003b3df       ?VertexOptimize@?$GXTri3Mesh@G$00$0PPPP@@@AAEJPAI0@Z 1003c3df f i d3dx8:createmesh.obj
 0001:0003b463       ?FindPoint@?$GXTri3Mesh@G$00$0PPPP@@@ABEIPAGI@Z 1003c463 f i d3dx8:createmesh.obj
 0001:0003b4a7       ?CreateEmptyMesh@?$GXTri3Mesh@G$00$0PPPP@@@AAEJXZ 1003c4a7 f i d3dx8:createmesh.obj
 0001:0003b4b6       ?Compact@?$GXTri3Mesh@I$0A@$0?0@@AAEJPAI00@Z 1003c4b6 f i d3dx8:createmesh.obj
 0001:0003b56e       ?VertexOptimize@?$GXTri3Mesh@I$0A@$0?0@@AAEJPAI0@Z 1003c56e f i d3dx8:createmesh.obj
 0001:0003b5d4       ?FindPoint@?$GXTri3Mesh@I$0A@$0?0@@ABEIPAII@Z 1003c5d4 f i d3dx8:createmesh.obj
 0001:0003b610       ?CreateEmptyMesh@?$GXTri3Mesh@I$0A@$0?0@@AAEJXZ 1003c610 f i d3dx8:createmesh.obj
 0001:0003b61f       ?MoveToCCWFace@?$CFaceListIter@G$00$0PPPP@@@QAE_NXZ 1003c61f f i d3dx8:createmesh.obj
 0001:0003b74d       ?MoveToCCWFace@?$CFaceListIter@I$0A@$0?0@@QAE_NXZ 1003c74d f i d3dx8:createmesh.obj
 0001:0003b849       ?Init@?$CSimplificationHeap@I@@QAEJI@Z 1003c849 f i d3dx8:createmesh.obj
 0001:0003b883       ?Switch@?$CSimplificationHeap@I@@AAEXII@Z 1003c883 f i d3dx8:createmesh.obj
 0001:0003b8bc       ?BInArray@@YA_NQAIII@Z     1003c8bc f i d3dx8:createmesh.obj
 0001:0003b8de       ?AddToDynamicArray@@YAHPAPAIABIPAI2@Z 1003c8de f i d3dx8:createmesh.obj
 0001:0003b97a       ?Init@?$CSimplificationHeap@G@@QAEJI@Z 1003c97a f i d3dx8:createmesh.obj
 0001:0003b9b4       ?Switch@?$CSimplificationHeap@G@@AAEXII@Z 1003c9b4 f i d3dx8:createmesh.obj
 0001:0003b9ed       ?BInArray@@YA_NQAGIG@Z     1003c9ed f i d3dx8:createmesh.obj
 0001:0003ba11       ?AddToDynamicArray@@YAHPAPAGABGPAI2@Z 1003ca11 f i d3dx8:createmesh.obj
 0001:0003bab0       ?DGetCost@?$CEdgeInfo@I@@QAEMXZ 1003cab0 f i d3dx8:createmesh.obj
 0001:0003bab4       ?DGetCost@?$CEdgeInfo@G@@QAEMXZ 1003cab4 f i d3dx8:createmesh.obj
 0001:0003bab8       ??0?$CMeshStatus@G$00$0PPPP@@@QAE@XZ 1003cab8 f i d3dx8:createmesh.obj
 0001:0003bac5       ??0?$CMeshStatus@I$0A@$0?0@@QAE@XZ 1003cac5 f i d3dx8:createmesh.obj
 0001:0003bad2       ?RemapVertex@?$GXTri3Mesh@G$00$0PPPP@@@AAEXIPAI@Z 1003cad2 f i d3dx8:createmesh.obj
 0001:0003baf3       ?RemapFace@?$GXTri3Mesh@G$00$0PPPP@@@AAEXIPAI0@Z 1003caf3 f i d3dx8:createmesh.obj
 0001:0003bb57       ?SwapVertex@?$GXTri3Mesh@G$00$0PPPP@@@AAEXIIPAE@Z 1003cb57 f i d3dx8:createmesh.obj
 0001:0003bbf4       ?SwapFace@?$GXTri3Mesh@G$00$0PPPP@@@AAEXII@Z 1003cbf4 f i d3dx8:createmesh.obj
 0001:0003bcd0       ?AddToDynamicArray@@YAHPAPAKABKPAI2@Z 1003ccd0 f i d3dx8:createmesh.obj
 0001:0003bd6c       ??0?$CMeshStatus@G$00$0PPPP@@@QAE@PAV?$GXTri3Mesh@G$00$0PPPP@@@PAV?$NeighborInfo@G@@G@Z 1003cd6c f i d3dx8:createmesh.obj
 0001:0003bd8f       ??1?$CMeshStatus@G$00$0PPPP@@@QAE@XZ 1003cd8f f i d3dx8:createmesh.obj
 0001:0003bda6       ?FindEdge@@YAIPBKK@Z       1003cda6 f i d3dx8:createmesh.obj
 0001:0003bdbc       ?RemapVertex@?$GXTri3Mesh@I$0A@$0?0@@AAEXIPAI@Z 1003cdbc f i d3dx8:createmesh.obj
 0001:0003bdda       ?RemapFace@?$GXTri3Mesh@I$0A@$0?0@@AAEXIPAI0@Z 1003cdda f i d3dx8:createmesh.obj
 0001:0003be31       ?SwapVertex@?$GXTri3Mesh@I$0A@$0?0@@AAEXIIPAE@Z 1003ce31 f i d3dx8:createmesh.obj
 0001:0003becb       ?SwapFace@?$GXTri3Mesh@I$0A@$0?0@@AAEXII@Z 1003cecb f i d3dx8:createmesh.obj
 0001:0003bf9e       ?CollectAttributeIds@?$GXTri3Mesh@I$0A@$0?0@@AAEJPAPAKPAK@Z 1003cf9e f i d3dx8:createmesh.obj
 0001:0003c0cc       ??0?$CMeshStatus@I$0A@$0?0@@QAE@PAV?$GXTri3Mesh@I$0A@$0?0@@PAV?$NeighborInfo@I@@I@Z 1003d0cc f i d3dx8:createmesh.obj
 0001:0003c0ed       ??1?$CMeshStatus@I$0A@$0?0@@QAE@XZ 1003d0ed f i d3dx8:createmesh.obj
 0001:0003c104       ?DGenerateBorderError@?$GXSimplifyMesh@I$0A@$0?0@@AAENIIPAUD3DXVECTOR3@@PAE@Z 1003d104 f i d3dx8:createmesh.obj
 0001:0003c28f       ?DGenerateBorderError@?$GXSimplifyMesh@G$00$0PPPP@@@AAENGGPAUD3DXVECTOR3@@PAE@Z 1003d28f f i d3dx8:createmesh.obj
 0001:0003c42a       ?BProcessed@?$CMeshStatus@G$00$0PPPP@@@QBEEG@Z 1003d42a f i d3dx8:createmesh.obj
 0001:0003c441       ?IFindInitialFace@?$CMeshStatus@G$00$0PPPP@@@QAEGXZ 1003d441 f i d3dx8:createmesh.obj
 0001:0003c46c       ?PwGetNeighbors@?$CMeshStatus@G$00$0PPPP@@@QAEPAGG@Z 1003d46c f i d3dx8:createmesh.obj
 0001:0003c47d       ?BProcessed@?$CMeshStatus@I$0A@$0?0@@QBEEI@Z 1003d47d f i d3dx8:createmesh.obj
 0001:0003c490       ?IFindInitialFace@?$CMeshStatus@I$0A@$0?0@@QAEIXZ 1003d490 f i d3dx8:createmesh.obj
 0001:0003c4af       ?PwGetNeighbors@?$CMeshStatus@I$0A@$0?0@@QAEPAII@Z 1003d4af f i d3dx8:createmesh.obj
 0001:0003c4bf       ??1?$CIndexQueue@G$0PPPP@@@QAE@XZ 1003d4bf f i d3dx8:createmesh.obj
 0001:0003c4c9       ??1?$CIndexQueue@I$0?0@@QAE@XZ 1003d4c9 f i d3dx8:createmesh.obj
 0001:0003c4d3       ??0?$CIndexQueue@G$0PPPP@@@QAE@I@Z 1003d4d3 f i d3dx8:createmesh.obj
 0001:0003c4e3       ?Init@?$CIndexQueue@G$0PPPP@@@QAEJXZ 1003d4e3 f i d3dx8:createmesh.obj
 0001:0003c52b       ?BElementPresent@?$CIndexQueue@G$0PPPP@@@QAE_NG@Z 1003d52b f i d3dx8:createmesh.obj
 0001:0003c553       ?InsertElement@?$CIndexQueue@G$0PPPP@@@QAEXG@Z 1003d553 f i d3dx8:createmesh.obj
 0001:0003c579       ??0?$CIndexQueue@I$0?0@@QAE@I@Z 1003d579 f i d3dx8:createmesh.obj
 0001:0003c589       ?Init@?$CIndexQueue@I$0?0@@QAEJXZ 1003d589 f i d3dx8:createmesh.obj
 0001:0003c5d0       ?BElementPresent@?$CIndexQueue@I$0?0@@QAE_NI@Z 1003d5d0 f i d3dx8:createmesh.obj
 0001:0003c5f7       ?InsertElement@?$CIndexQueue@I$0?0@@QAEXI@Z 1003d5f7 f i d3dx8:createmesh.obj
 0001:0003c61b       ?ClwFaceCorner@?$GXTri3Mesh@G$00$0PPPP@@@AAE?AUSFaceCorner@@AAU2@@Z 1003d61b f i d3dx8:createmesh.obj
 0001:0003c63b       ?CcwCorner@?$GXTri3Mesh@G$00$0PPPP@@@AAE?AUSFaceCorner@@AAU2@PAV?$CMeshStatus@G$00$0PPPP@@@@Z 1003d63b f i d3dx8:createmesh.obj
 0001:0003c69c       ?ClwFaceCorner@?$GXTri3Mesh@I$0A@$0?0@@AAE?AUSFaceCorner@@AAU2@@Z 1003d69c f i d3dx8:createmesh.obj
 0001:0003c6bc       ?CcwCorner@?$GXTri3Mesh@I$0A@$0?0@@AAE?AUSFaceCorner@@AAU2@PAV?$CMeshStatus@I$0A@$0?0@@@Z 1003d6bc f i d3dx8:createmesh.obj
 0001:0003c70d       ?CUnprocessedNeighbors@?$CMeshStatus@G$00$0PPPP@@@QBEGG@Z 1003d70d f i d3dx8:createmesh.obj
 0001:0003c727       ?CUnprocessedNeighbors@?$CMeshStatus@I$0A@$0?0@@QBEII@Z 1003d727 f i d3dx8:createmesh.obj
 0001:0003c73c       ?CcwFaceCorner@?$GXTri3Mesh@G$00$0PPPP@@@AAE?AUSFaceCorner@@AAU2@@Z 1003d73c f i d3dx8:createmesh.obj
 0001:0003c75b       ?ClwCorner@?$GXTri3Mesh@G$00$0PPPP@@@AAE?AUSFaceCorner@@AAU2@PAV?$CMeshStatus@G$00$0PPPP@@@@Z 1003d75b f i d3dx8:createmesh.obj
 0001:0003c7bb       ?RemoveElement@?$CMeshStatus@G$00$0PPPP@@@AAEXG@Z 1003d7bb f i d3dx8:createmesh.obj
 0001:0003c841       ?PrependElement@?$CMeshStatus@G$00$0PPPP@@@AAEXG@Z 1003d841 f i d3dx8:createmesh.obj
 0001:0003c891       ?DecrementCount@?$CMeshStatus@G$00$0PPPP@@@AAEXG@Z 1003d891 f i d3dx8:createmesh.obj
 0001:0003c8c4       ?CcwFaceCorner@?$GXTri3Mesh@I$0A@$0?0@@AAE?AUSFaceCorner@@AAU2@@Z 1003d8c4 f i d3dx8:createmesh.obj
 0001:0003c8e3       ?ClwCorner@?$GXTri3Mesh@I$0A@$0?0@@AAE?AUSFaceCorner@@AAU2@PAV?$CMeshStatus@I$0A@$0?0@@@Z 1003d8e3 f i d3dx8:createmesh.obj
 0001:0003c933       ?RemoveElement@?$CMeshStatus@I$0A@$0?0@@AAEXI@Z 1003d933 f i d3dx8:createmesh.obj
 0001:0003c99a       ?PrependElement@?$CMeshStatus@I$0A@$0?0@@AAEXI@Z 1003d99a f i d3dx8:createmesh.obj
 0001:0003c9d9       ?DecrementCount@?$CMeshStatus@I$0A@$0?0@@AAEXI@Z 1003d9d9 f i d3dx8:createmesh.obj
 0001:0003ca03       ??0SVertexCopyContext@@QAE@KK@Z 1003da03 f i d3dx8:createmesh.obj
 0001:0003cae9       ?CopyVertex@SVertexCopyContext@@QAEXPAE0@Z 1003dae9 f i d3dx8:createmesh.obj
 0001:0003cca0       ?FVFSize@@YAKK@Z           1003dca0 f i d3dx8:createmesh.obj
 0001:0003ccb6       ?Release@CPMSharedData@@UAGKXZ 1003dcb6 f i d3dx8:createmesh.obj
 0001:0003cce5       ??1CPMSharedData@@QAE@XZ   1003dce5 f i d3dx8:createmesh.obj
 0001:0003cd02       ??0ID3DXSkinMesh@@QAE@XZ   1003dd02 f i d3dx8:createmesh.obj
 0001:0003cd05       ??1CD3DXSkinMesh@@QAE@XZ   1003dd05 f   d3dx8:createmesh.obj
 0001:0003cd67       ??_GCD3DXSkinMesh@@QAEPAXI@Z 1003dd67 f i d3dx8:createmesh.obj
 0001:0003cd83       ?CalcNumAttributes@CD3DXSkinMesh@@QAEXPAK0@Z 1003dd83 f   d3dx8:createmesh.obj
 0001:0003ce14       ?GetMaxFaceInfluences@CD3DXSkinMesh@@UAGJPAK@Z 1003de14 f   d3dx8:createmesh.obj
 0001:0003cf5c       _D3DXCreateBuffer@8        1003df5c f   d3dx8:createmesh.obj
 0001:0003cfb4       ?DrawSubset@?$GXTri3Mesh@G$00$0PPPP@@@UAGJK@Z 1003dfb4 f i d3dx8:createmesh.obj
 0001:0003d0da       ?Resize@?$GXTri3Mesh@G$00$0PPPP@@@QAEJII@Z 1003e0da f i d3dx8:createmesh.obj
 0001:0003d437       ?BValid@?$GXTri3Mesh@G$00$0PPPP@@@EAE_NPAV?$GXTri3Face@G@@@Z 1003e437 f i d3dx8:createmesh.obj
 0001:0003d654       ?BValidAttributeGroups@?$GXTri3Mesh@G$00$0PPPP@@@AAE_NPAV?$GXTri3Face@G@@@Z 1003e654 f i d3dx8:createmesh.obj
 0001:0003d6ae       ?DrawSubset@?$GXTri3Mesh@I$0A@$0?0@@UAGJK@Z 1003e6ae f i d3dx8:createmesh.obj
 0001:0003d86a       ?ConvertPointRepsToAdjacency@?$GXTri3Mesh@I$0A@$0?0@@UAGJPBKPAK@Z 1003e86a f i d3dx8:createmesh.obj
 0001:0003dac0       ?Resize@?$GXTri3Mesh@I$0A@$0?0@@QAEJII@Z 1003eac0 f i d3dx8:createmesh.obj
 0001:0003de1d       ?BValid@?$GXTri3Mesh@I$0A@$0?0@@EAE_NPAV?$GXTri3Face@I@@@Z 1003ee1d f i d3dx8:createmesh.obj
 0001:0003e002       ?BValidAttributeGroups@?$GXTri3Mesh@I$0A@$0?0@@AAE_NPAV?$GXTri3Face@I@@@Z 1003f002 f i d3dx8:createmesh.obj
 0001:0003e05c       ?LoadFromData@?$GXHalfEdgePMesh@G$00$0PPPP@@@QAEJPAUID3DXMesh@@PAKPAEK@Z 1003f05c f i d3dx8:createmesh.obj
 0001:0003e5cf       ?LoadFromData@?$GXHalfEdgePMesh@I$0A@$0?0@@QAEJPAUID3DXMesh@@PAKPAEK@Z 1003f5cf f i d3dx8:createmesh.obj
 0001:0003eb27       ??0ID3DXMesh@@QAE@XZ       1003fb27 f i d3dx8:createmesh.obj
 0001:0003eb2a       ??0ID3DXPMesh@@QAE@XZ      1003fb2a f i d3dx8:createmesh.obj
 0001:0003eb2d       ?Init@?$CFaceListIter@G$00$0PPPP@@@QAEXGGE@Z 1003fb2d f i d3dx8:createmesh.obj
 0001:0003ebbf       ?Init@?$CFaceListIter@I$0A@$0?0@@QAEXIIE@Z 1003fbbf f i d3dx8:createmesh.obj
 0001:0003ec32       ?CopyMesh@?$GXTri3Mesh@G$00$0PPPP@@@AAEJPAV1@@Z 1003fc32 f i d3dx8:createmesh.obj
 0001:0003ee57       ?CopyMesh@?$GXTri3Mesh@I$0A@$0?0@@AAEJPAV1@@Z 1003fe57 f i d3dx8:createmesh.obj
 0001:0003f07b       ?GetNextFace@?$CFaceListIter@G$00$0PPPP@@@QAEGXZ 1004007b f i d3dx8:createmesh.obj
 0001:0003f1a2       ?GetNextFace@?$CFaceListIter@I$0A@$0?0@@QAEIXZ 100401a2 f i d3dx8:createmesh.obj
 0001:0003f282       ?CreateEmptyMesh@?$GXSimplifyMesh@I$0A@$0?0@@AAEJXZ 10040282 f i d3dx8:createmesh.obj
 0001:0003f3c2       ?ComputePointReps@?$GXSimplifyMesh@I$0A@$0?0@@AAEJXZ 100403c2 f i d3dx8:createmesh.obj
 0001:0003f4a5       ?CreateEmptyMesh@?$GXSimplifyMesh@G$00$0PPPP@@@AAEJXZ 100404a5 f i d3dx8:createmesh.obj
 0001:0003f5e5       ?ComputePointReps@?$GXSimplifyMesh@G$00$0PPPP@@@AAEJXZ 100405e5 f i d3dx8:createmesh.obj
 0001:0003f6d6       ?SplitSharedVertices@?$GXTri3Mesh@G$00$0PPPP@@@AAEJPAPAKPAI@Z 100406d6 f i d3dx8:createmesh.obj
 0001:0003f948       ?ReorderVertexData@?$GXTri3Mesh@G$00$0PPPP@@@AAEJPAIPAE@Z 10040948 f i d3dx8:createmesh.obj
 0001:0003fa8d       ?ReorderFaceData@?$GXTri3Mesh@G$00$0PPPP@@@AAEJPAI0@Z 10040a8d f i d3dx8:createmesh.obj
 0001:0003fb77       ?AddVertex@?$GXTri3Mesh@G$00$0PPPP@@@AAEJPAEG@Z 10040b77 f i d3dx8:createmesh.obj
 0001:0003fd5d       ?AttributeSort@?$GXTri3Mesh@I$0A@$0?0@@AAEJPAI00H@Z 10040d5d f i d3dx8:createmesh.obj
 0001:0004012e       ?SplitSharedVertices@?$GXTri3Mesh@I$0A@$0?0@@AAEJPAPAKPAI@Z 1004112e f i d3dx8:createmesh.obj
 0001:00040381       ?ReorderVertexData@?$GXTri3Mesh@I$0A@$0?0@@AAEJPAIPAE@Z 10041381 f i d3dx8:createmesh.obj
 0001:000404a8       ?ReorderFaceData@?$GXTri3Mesh@I$0A@$0?0@@AAEJPAI0@Z 100414a8 f i d3dx8:createmesh.obj
 0001:00040589       ?AddVertex@?$GXTri3Mesh@I$0A@$0?0@@AAEJPAEI@Z 10041589 f i d3dx8:createmesh.obj
 0001:0004071d       ?CalcEdgeQEMS_Plane@?$GXSimplifyMesh@I$0A@$0?0@@AAEXIIPAE@Z 1004171d f i d3dx8:createmesh.obj
 0001:00040ba9       ?Adjust@?$CSimplificationHeap@I@@AAEXI_N0@Z 10041ba9 f i d3dx8:createmesh.obj
 0001:00040c53       ?CalcEdgeQEMS_Plane@?$GXSimplifyMesh@G$00$0PPPP@@@AAEXGGPAE@Z 10041c53 f i d3dx8:createmesh.obj
 0001:000410dc       ?Adjust@?$CSimplificationHeap@G@@AAEXI_N0@Z 100420dc f i d3dx8:createmesh.obj
 0001:00041186       ??1?$CSimVertexCache@G$0PPPP@@@QAE@XZ 10042186 f i d3dx8:createmesh.obj
 0001:00041190       ??1?$CSimVertexCache@I$0?0@@QAE@XZ 10042190 f i d3dx8:createmesh.obj
 0001:0004119a       ??0?$CSimVertexCache@G$0PPPP@@@QAE@I@Z 1004219a f i d3dx8:createmesh.obj
 0001:000411aa       ?Clear@?$CSimVertexCache@G$0PPPP@@@QAEJXZ 100421aa f i d3dx8:createmesh.obj
 0001:000411af       ?AccessVertex@?$CSimVertexCache@G$0PPPP@@@QAEXGAA_N@Z 100421af f i d3dx8:createmesh.obj
 0001:000411e8       ??0?$CSimVertexCache@I$0?0@@QAE@I@Z 100421e8 f i d3dx8:createmesh.obj
 0001:000411f8       ?Clear@?$CSimVertexCache@I$0?0@@QAEJXZ 100421f8 f i d3dx8:createmesh.obj
 0001:000411fd       ?AccessVertex@?$CSimVertexCache@I$0?0@@QAEXIAA_N@Z 100421fd f i d3dx8:createmesh.obj
 0001:00041236       ?TryStartingEarlier@?$GXTri3Mesh@G$00$0PPPP@@@AAEXAAUSFaceCorner@@PAV?$CMeshStatus@G$00$0PPPP@@@@Z 10042236 f i d3dx8:createmesh.obj
 0001:00041239       ?Init@?$CMeshStatus@G$00$0PPPP@@@QAEJGG_N@Z 10042239 f i d3dx8:createmesh.obj
 0001:00041339       ?MarkAsProcessed@?$CMeshStatus@G$00$0PPPP@@@QAEXG@Z 10042339 f i d3dx8:createmesh.obj
 0001:000413b8       ?IFindNextFace@?$CMeshStatus@G$00$0PPPP@@@QAEGG@Z 100423b8 f i d3dx8:createmesh.obj
 0001:000414b2       ?TryStartingEarlier@?$GXTri3Mesh@I$0A@$0?0@@AAEXAAUSFaceCorner@@PAV?$CMeshStatus@I$0A@$0?0@@@Z 100424b2 f i d3dx8:createmesh.obj
 0001:000414b5       ?Init@?$CMeshStatus@I$0A@$0?0@@QAEJII_N@Z 100424b5 f i d3dx8:createmesh.obj
 0001:000415a1       ?MarkAsProcessed@?$CMeshStatus@I$0A@$0?0@@QAEXI@Z 100425a1 f i d3dx8:createmesh.obj
 0001:00041606       ?IFindNextFace@?$CMeshStatus@I$0A@$0?0@@QAEII@Z 10042606 f i d3dx8:createmesh.obj
 0001:000416de       ??0CD3DXSkinMesh@@QAE@XZ   100426de f   d3dx8:createmesh.obj
 0001:00041707       ?Release@CD3DXSkinMesh@@UAGKXZ 10042707 f   d3dx8:createmesh.obj
 0001:00041728       _D3DXCreateSkinMeshFromMesh@12 10042728 f   d3dx8:createmesh.obj
 0001:00041782       ?D3DXCreateSkinMeshFromMeshAndBones@@YGJPAUID3DXMesh@@KPAVCBone@@PAPAUID3DXSkinMesh@@@Z 10042782 f   d3dx8:createmesh.obj
 0001:000417e0       ?Release@?$GXTri3Mesh@G$00$0PPPP@@@UAGKXZ 100427e0 f i d3dx8:createmesh.obj
 0001:00041818       ?Release@?$GXTri3Mesh@I$0A@$0?0@@UAGKXZ 10042818 f i d3dx8:createmesh.obj
 0001:00041850       ??0?$GXTri3Mesh@G$00$0PPPP@@@QAE@PAUIDirect3DDevice8@@KK@Z 10042850 f i d3dx8:createmesh.obj
 0001:000419a3       ?ConvertAdjacencyToPointReps@?$GXTri3Mesh@G$00$0PPPP@@@UAGJPBKPAK@Z 100429a3 f i d3dx8:createmesh.obj
 0001:00041b8c       ?GenerateAdjacency@?$GXTri3Mesh@G$00$0PPPP@@@UAGJMPAK@Z 10042b8c f i d3dx8:createmesh.obj
 0001:00041dd0       ?VertexHashAdd@@YAHPAUD3DXVECTOR3@@KPAPAUSVertexHashEntry@@PAU2@KPAK3PAV?$GXTri3Face@G@@33@Z 10042dd0 f i d3dx8:createmesh.obj
 0001:00041e74       ?BEdgePresent@@YAHKKPAK0PAV?$GXTri3Face@G@@@Z 10042e74 f i d3dx8:createmesh.obj
 0001:00041ec1       ??0?$GXTri3Mesh@I$0A@$0?0@@QAE@PAUIDirect3DDevice8@@KK@Z 10042ec1 f i d3dx8:createmesh.obj
 0001:00042014       ?CloneMeshFVF@?$GXTri3Mesh@I$0A@$0?0@@UAGJKKPAUIDirect3DDevice8@@PAPAUID3DXMesh@@@Z 10043014 f i d3dx8:createmesh.obj
 0001:000421ba       ?CloneHelper16@?$GXTri3Mesh@I$0A@$0?0@@AAEJPAV?$GXTri3Mesh@G$00$0PPPP@@@@Z 100431ba f i d3dx8:createmesh.obj
 0001:00042399       ?CloneHelper32@?$GXTri3Mesh@I$0A@$0?0@@AAEJPAV1@@Z 10043399 f i d3dx8:createmesh.obj
 0001:0004255e       ?CloneVertexBuffer@?$GXTri3Mesh@I$0A@$0?0@@AAEJKPAUIDirect3DVertexBuffer8@@@Z 1004355e f i d3dx8:createmesh.obj
 0001:00042637       ?ConvertAdjacencyToPointReps@?$GXTri3Mesh@I$0A@$0?0@@UAGJPBKPAK@Z 10043637 f i d3dx8:createmesh.obj
 0001:000427ff       ?GenerateAdjacency@?$GXTri3Mesh@I$0A@$0?0@@UAGJMPAK@Z 100437ff f i d3dx8:createmesh.obj
 0001:00042a47       ?VertexHashAdd@@YAHPAUD3DXVECTOR3@@KPAPAUSVertexHashEntry@@PAU2@KPAK3PAV?$GXTri3Face@I@@33@Z 10043a47 f i d3dx8:createmesh.obj
 0001:00042aeb       ?BEdgePresent@@YAHKKPAK0PAV?$GXTri3Face@I@@@Z 10043aeb f i d3dx8:createmesh.obj
 0001:00042b37       ??0?$GXHalfEdgePMesh@G$00$0PPPP@@@QAE@PAUIDirect3DDevice8@@KK@Z 10043b37 f i d3dx8:createmesh.obj
 0001:00042bb2       ?AddRef@?$GXHalfEdgePMesh@G$00$0PPPP@@@UAGKXZ 10043bb2 f i d3dx8:createmesh.obj
 0001:00042bbf       ?DrawSubset@?$GXHalfEdgePMesh@G$00$0PPPP@@@UAGJK@Z 10043bbf f i d3dx8:createmesh.obj
 0001:00042bd3       ?GetNumFaces@?$GXHalfEdgePMesh@G$00$0PPPP@@@UAGKXZ 10043bd3 f i d3dx8:createmesh.obj
 0001:00042be0       ?GetNumVertices@?$GXHalfEdgePMesh@G$00$0PPPP@@@UAGKXZ 10043be0 f i d3dx8:createmesh.obj
 0001:00042bed       ?GetFVF@?$GXHalfEdgePMesh@G$00$0PPPP@@@UAGKXZ 10043bed f i d3dx8:createmesh.obj
 0001:00042bfd       ?GetDeclaration@?$GXHalfEdgePMesh@G$00$0PPPP@@@UAGJQAK@Z 10043bfd f i d3dx8:createmesh.obj
 0001:00042c11       ?GetOptions@?$GXHalfEdgePMesh@G$00$0PPPP@@@UAGKXZ 10043c11 f i d3dx8:createmesh.obj
 0001:00042c21       ?GetDevice@?$GXHalfEdgePMesh@G$00$0PPPP@@@UAGJPAPAUIDirect3DDevice8@@@Z 10043c21 f i d3dx8:createmesh.obj
 0001:00042c35       ?GetVertexBuffer@?$GXHalfEdgePMesh@G$00$0PPPP@@@UAGJPAPAUIDirect3DVertexBuffer8@@@Z 10043c35 f i d3dx8:createmesh.obj
 0001:00042c49       ?GetIndexBuffer@?$GXHalfEdgePMesh@G$00$0PPPP@@@UAGJPAPAUIDirect3DIndexBuffer8@@@Z 10043c49 f i d3dx8:createmesh.obj
 0001:00042c5d       ?LockVertexBuffer@?$GXHalfEdgePMesh@G$00$0PPPP@@@UAGJKPAPAE@Z 10043c5d f i d3dx8:createmesh.obj
 0001:00042c75       ?UnlockVertexBuffer@?$GXHalfEdgePMesh@G$00$0PPPP@@@UAGJXZ 10043c75 f i d3dx8:createmesh.obj
 0001:00042c85       ?LockIndexBuffer@?$GXHalfEdgePMesh@G$00$0PPPP@@@UAGJKPAPAE@Z 10043c85 f i d3dx8:createmesh.obj
 0001:00042cab       ?UnlockIndexBuffer@?$GXHalfEdgePMesh@G$00$0PPPP@@@UAGJXZ 10043cab f i d3dx8:createmesh.obj
 0001:00042cbb       ?GetAttributeTable@?$GXHalfEdgePMesh@G$00$0PPPP@@@UAGJPAU_D3DXATTRIBUTERANGE@@PAK@Z 10043cbb f i d3dx8:createmesh.obj
 0001:00042cd3       ?QueryInterface@?$GXHalfEdgePMesh@G$00$0PPPP@@@UAGJABU_GUID@@PAPAX@Z 10043cd3 f i d3dx8:createmesh.obj
 0001:00042d2b       ?CloneMeshFVF@?$GXHalfEdgePMesh@G$00$0PPPP@@@UAGJKKPAUIDirect3DDevice8@@PAPAUID3DXMesh@@@Z 10043d2b f i d3dx8:createmesh.obj
 0001:00042d7d       ?CloneMesh@?$GXHalfEdgePMesh@G$00$0PPPP@@@UAGJKPBKPAUIDirect3DDevice8@@PAPAUID3DXMesh@@@Z 10043d7d f i d3dx8:createmesh.obj
 0001:00042db7       ?ClonePMesh@?$GXHalfEdgePMesh@G$00$0PPPP@@@UAGJKPBKPAUIDirect3DDevice8@@PAPAUID3DXPMesh@@@Z 10043db7 f i d3dx8:createmesh.obj
 0001:00042df1       ?GetMaxFaces@?$GXHalfEdgePMesh@G$00$0PPPP@@@UAGKXZ 10043df1 f i d3dx8:createmesh.obj
 0001:00042dfe       ?GetMinFaces@?$GXHalfEdgePMesh@G$00$0PPPP@@@UAGKXZ 10043dfe f i d3dx8:createmesh.obj
 0001:00042e0b       ?GetMaxVertices@?$GXHalfEdgePMesh@G$00$0PPPP@@@UAGKXZ 10043e0b f i d3dx8:createmesh.obj
 0001:00042e18       ?GetMinVertices@?$GXHalfEdgePMesh@G$00$0PPPP@@@UAGKXZ 10043e18 f i d3dx8:createmesh.obj
 0001:00042e25       ?Save@?$GXHalfEdgePMesh@G$00$0PPPP@@@UAGJPAUIStream@@PAUD3DXMATERIAL@@K@Z 10043e25 f i d3dx8:createmesh.obj
 0001:000430e1       ?Optimize@?$GXHalfEdgePMesh@G$00$0PPPP@@@UAGJKPAK0PAPAUID3DXBuffer@@PAPAUID3DXMesh@@@Z 100440e1 f i d3dx8:createmesh.obj
 0001:0004310b       ?GetAdjacency@?$GXHalfEdgePMesh@G$00$0PPPP@@@UAGJPAK@Z 1004410b f i d3dx8:createmesh.obj
 0001:00043143       ?CloneMeshInternal@?$GXHalfEdgePMesh@G$00$0PPPP@@@EAGJKKPAUIDirect3DDevice8@@HKPAK1PAPAUID3DXBuffer@@PAPAUID3DXMesh@@@Z 10044143 f i d3dx8:createmesh.obj
 0001:0004332a       ?Release@?$GXHalfEdgePMesh@G$00$0PPPP@@@UAGKXZ 1004432a f i d3dx8:createmesh.obj
 0001:00043353       ??1?$GXHalfEdgePMesh@G$00$0PPPP@@@QAE@XZ 10044353 f i d3dx8:createmesh.obj
 0001:000433b6       ??0?$GXHalfEdgePMesh@I$0A@$0?0@@QAE@PAUIDirect3DDevice8@@KK@Z 100443b6 f i d3dx8:createmesh.obj
 0001:00043430       ?AddRef@?$GXHalfEdgePMesh@I$0A@$0?0@@UAGKXZ 10044430 f i d3dx8:createmesh.obj
 0001:0004343d       ?DrawSubset@?$GXHalfEdgePMesh@I$0A@$0?0@@UAGJK@Z 1004443d f i d3dx8:createmesh.obj
 0001:00043451       ?GetNumFaces@?$GXHalfEdgePMesh@I$0A@$0?0@@UAGKXZ 10044451 f i d3dx8:createmesh.obj
 0001:0004345e       ?GetNumVertices@?$GXHalfEdgePMesh@I$0A@$0?0@@UAGKXZ 1004445e f i d3dx8:createmesh.obj
 0001:0004346b       ?GetFVF@?$GXHalfEdgePMesh@I$0A@$0?0@@UAGKXZ 1004446b f i d3dx8:createmesh.obj
 0001:0004347b       ?GetDeclaration@?$GXHalfEdgePMesh@I$0A@$0?0@@UAGJQAK@Z 1004447b f i d3dx8:createmesh.obj
 0001:0004348f       ?GetOptions@?$GXHalfEdgePMesh@I$0A@$0?0@@UAGKXZ 1004448f f i d3dx8:createmesh.obj
 0001:0004349f       ?GetDevice@?$GXHalfEdgePMesh@I$0A@$0?0@@UAGJPAPAUIDirect3DDevice8@@@Z 1004449f f i d3dx8:createmesh.obj
 0001:000434b3       ?GetVertexBuffer@?$GXHalfEdgePMesh@I$0A@$0?0@@UAGJPAPAUIDirect3DVertexBuffer8@@@Z 100444b3 f i d3dx8:createmesh.obj
 0001:000434c7       ?GetIndexBuffer@?$GXHalfEdgePMesh@I$0A@$0?0@@UAGJPAPAUIDirect3DIndexBuffer8@@@Z 100444c7 f i d3dx8:createmesh.obj
 0001:000434db       ?LockVertexBuffer@?$GXHalfEdgePMesh@I$0A@$0?0@@UAGJKPAPAE@Z 100444db f i d3dx8:createmesh.obj
 0001:000434f3       ?UnlockVertexBuffer@?$GXHalfEdgePMesh@I$0A@$0?0@@UAGJXZ 100444f3 f i d3dx8:createmesh.obj
 0001:00043503       ?LockIndexBuffer@?$GXHalfEdgePMesh@I$0A@$0?0@@UAGJKPAPAE@Z 10044503 f i d3dx8:createmesh.obj
 0001:00043529       ?UnlockIndexBuffer@?$GXHalfEdgePMesh@I$0A@$0?0@@UAGJXZ 10044529 f i d3dx8:createmesh.obj
 0001:00043539       ?GetAttributeTable@?$GXHalfEdgePMesh@I$0A@$0?0@@UAGJPAU_D3DXATTRIBUTERANGE@@PAK@Z 10044539 f i d3dx8:createmesh.obj
 0001:00043551       ?QueryInterface@?$GXHalfEdgePMesh@I$0A@$0?0@@UAGJABU_GUID@@PAPAX@Z 10044551 f i d3dx8:createmesh.obj
 0001:000435a9       ?CloneMeshFVF@?$GXHalfEdgePMesh@I$0A@$0?0@@UAGJKKPAUIDirect3DDevice8@@PAPAUID3DXMesh@@@Z 100445a9 f i d3dx8:createmesh.obj
 0001:000435fb       ?CloneMesh@?$GXHalfEdgePMesh@I$0A@$0?0@@UAGJKPBKPAUIDirect3DDevice8@@PAPAUID3DXMesh@@@Z 100445fb f i d3dx8:createmesh.obj
 0001:00043635       ?ClonePMesh@?$GXHalfEdgePMesh@I$0A@$0?0@@UAGJKPBKPAUIDirect3DDevice8@@PAPAUID3DXPMesh@@@Z 10044635 f i d3dx8:createmesh.obj
 0001:0004366f       ?GetMaxFaces@?$GXHalfEdgePMesh@I$0A@$0?0@@UAGKXZ 1004466f f i d3dx8:createmesh.obj
 0001:0004367c       ?GetMinFaces@?$GXHalfEdgePMesh@I$0A@$0?0@@UAGKXZ 1004467c f i d3dx8:createmesh.obj
 0001:00043689       ?GetMaxVertices@?$GXHalfEdgePMesh@I$0A@$0?0@@UAGKXZ 10044689 f i d3dx8:createmesh.obj
 0001:00043696       ?GetMinVertices@?$GXHalfEdgePMesh@I$0A@$0?0@@UAGKXZ 10044696 f i d3dx8:createmesh.obj
 0001:000436a3       ?Save@?$GXHalfEdgePMesh@I$0A@$0?0@@UAGJPAUIStream@@PAUD3DXMATERIAL@@K@Z 100446a3 f i d3dx8:createmesh.obj
 0001:0004395e       ?Optimize@?$GXHalfEdgePMesh@I$0A@$0?0@@UAGJKPAK0PAPAUID3DXBuffer@@PAPAUID3DXMesh@@@Z 1004495e f i d3dx8:createmesh.obj
 0001:00043988       ?GetAdjacency@?$GXHalfEdgePMesh@I$0A@$0?0@@UAGJPAK@Z 10044988 f i d3dx8:createmesh.obj
 0001:000439bb       ?CloneMeshInternal@?$GXHalfEdgePMesh@I$0A@$0?0@@EAGJKKPAUIDirect3DDevice8@@HKPAK1PAPAUID3DXBuffer@@PAPAUID3DXMesh@@@Z 100449bb f i d3dx8:createmesh.obj
 0001:00043b9b       ?Release@?$GXHalfEdgePMesh@I$0A@$0?0@@UAGKXZ 10044b9b f i d3dx8:createmesh.obj
 0001:00043bc4       ??1?$GXHalfEdgePMesh@I$0A@$0?0@@QAE@XZ 10044bc4 f i d3dx8:createmesh.obj
 0001:00043c27       ?ClonePMeshFVF@?$GXHalfEdgePMesh@I$0A@$0?0@@UAGJKKPAUIDirect3DDevice8@@PAPAUID3DXPMesh@@@Z 10044c27 f i d3dx8:createmesh.obj
 0001:00043fad       ??0?$GXSimplifyMesh@I$0A@$0?0@@QAE@PAUIDirect3DDevice8@@KK@Z 10044fad f i d3dx8:createmesh.obj
 0001:000440a3       ?GetFVF@?$GXSimplifyMesh@I$0A@$0?0@@UAGKXZ 100450a3 f i d3dx8:createmesh.obj
 0001:000440b3       ?GetDeclaration@?$GXSimplifyMesh@I$0A@$0?0@@UAGJQAK@Z 100450b3 f i d3dx8:createmesh.obj
 0001:000440c7       ?GetOptions@?$GXSimplifyMesh@I$0A@$0?0@@UAGKXZ 100450c7 f i d3dx8:createmesh.obj
 0001:000440d7       ?GetDevice@?$GXSimplifyMesh@I$0A@$0?0@@UAGJPAPAUIDirect3DDevice8@@@Z 100450d7 f i d3dx8:createmesh.obj
 0001:000440eb       ?AddRef@?$GXSimplifyMesh@I$0A@$0?0@@UAGKXZ 100450eb f i d3dx8:createmesh.obj
 0001:000440f8       ?QueryInterface@?$GXSimplifyMesh@I$0A@$0?0@@UAGJABU_GUID@@PAPAX@Z 100450f8 f i d3dx8:createmesh.obj
 0001:0004413f       ?GetNumFaces@?$GXSimplifyMesh@I$0A@$0?0@@UAGKXZ 1004513f f i d3dx8:createmesh.obj
 0001:0004414c       ?GetNumVertices@?$GXSimplifyMesh@I$0A@$0?0@@UAGKXZ 1004514c f i d3dx8:createmesh.obj
 0001:00044159       ?CloneMeshFVF@?$GXSimplifyMesh@I$0A@$0?0@@UAGJKKPAUIDirect3DDevice8@@PAK1PAPAUID3DXMesh@@@Z 10045159 f i d3dx8:createmesh.obj
 0001:000442c7       ?CloneMesh@?$GXSimplifyMesh@I$0A@$0?0@@UAGJKPBKPAUIDirect3DDevice8@@PAK2PAPAUID3DXMesh@@@Z 100452c7 f i d3dx8:createmesh.obj
 0001:00044307       ?ClonePMesh@?$GXSimplifyMesh@I$0A@$0?0@@UAGJKPBKPAUIDirect3DDevice8@@PAKPAPAUID3DXPMesh@@@Z 10045307 f i d3dx8:createmesh.obj
 0001:00044344       ?GetMaxFaces@?$GXSimplifyMesh@I$0A@$0?0@@UAGKXZ 10045344 f i d3dx8:createmesh.obj
 0001:00044351       ?GetMaxVertices@?$GXSimplifyMesh@I$0A@$0?0@@UAGKXZ 10045351 f i d3dx8:createmesh.obj
 0001:0004435e       ??0?$GXSimplifyMesh@G$00$0PPPP@@@QAE@PAUIDirect3DDevice8@@KK@Z 1004535e f i d3dx8:createmesh.obj
 0001:00044454       ?GetFVF@?$GXSimplifyMesh@G$00$0PPPP@@@UAGKXZ 10045454 f i d3dx8:createmesh.obj
 0001:00044464       ?GetDeclaration@?$GXSimplifyMesh@G$00$0PPPP@@@UAGJQAK@Z 10045464 f i d3dx8:createmesh.obj
 0001:00044478       ?GetOptions@?$GXSimplifyMesh@G$00$0PPPP@@@UAGKXZ 10045478 f i d3dx8:createmesh.obj
 0001:00044488       ?GetDevice@?$GXSimplifyMesh@G$00$0PPPP@@@UAGJPAPAUIDirect3DDevice8@@@Z 10045488 f i d3dx8:createmesh.obj
 0001:0004449c       ?AddRef@?$GXSimplifyMesh@G$00$0PPPP@@@UAGKXZ 1004549c f i d3dx8:createmesh.obj
 0001:000444a9       ?QueryInterface@?$GXSimplifyMesh@G$00$0PPPP@@@UAGJABU_GUID@@PAPAX@Z 100454a9 f i d3dx8:createmesh.obj
 0001:000444f0       ?GetNumFaces@?$GXSimplifyMesh@G$00$0PPPP@@@UAGKXZ 100454f0 f i d3dx8:createmesh.obj
 0001:000444fd       ?GetNumVertices@?$GXSimplifyMesh@G$00$0PPPP@@@UAGKXZ 100454fd f i d3dx8:createmesh.obj
 0001:0004450a       ?CloneMeshFVF@?$GXSimplifyMesh@G$00$0PPPP@@@UAGJKKPAUIDirect3DDevice8@@PAK1PAPAUID3DXMesh@@@Z 1004550a f i d3dx8:createmesh.obj
 0001:0004467f       ?CloneMesh@?$GXSimplifyMesh@G$00$0PPPP@@@UAGJKPBKPAUIDirect3DDevice8@@PAK2PAPAUID3DXMesh@@@Z 1004567f f i d3dx8:createmesh.obj
 0001:000446bf       ?ClonePMesh@?$GXSimplifyMesh@G$00$0PPPP@@@UAGJKPBKPAUIDirect3DDevice8@@PAKPAPAUID3DXPMesh@@@Z 100456bf f i d3dx8:createmesh.obj
 0001:000446fc       ?GetMaxFaces@?$GXSimplifyMesh@G$00$0PPPP@@@UAGKXZ 100456fc f i d3dx8:createmesh.obj
 0001:00044709       ?GetMaxVertices@?$GXSimplifyMesh@G$00$0PPPP@@@UAGKXZ 10045709 f i d3dx8:createmesh.obj
 0001:00044716       ?DefragmentWedges@?$GXSimplifyMesh@I$0A@$0?0@@AAEJXZ 10045716 f i d3dx8:createmesh.obj
 0001:00044ce6       ?DefragmentWedges@?$GXSimplifyMesh@G$00$0PPPP@@@AAEJXZ 10045ce6 f i d3dx8:createmesh.obj
 0001:000452f4       ?Add@?$CSimplificationHeap@I@@QAEJPAV?$CEdgeInfo@I@@@Z 100462f4 f i d3dx8:createmesh.obj
 0001:0004531f       ?Add@?$CSimplificationHeap@G@@QAEJPAV?$CEdgeInfo@G@@@Z 1004631f f i d3dx8:createmesh.obj
 0001:0004534a       ?SGIStripReorder@?$GXTri3Mesh@G$00$0PPPP@@@AAEJPAV?$CMeshStatus@G$00$0PPPP@@@PAI1@Z 1004634a f i d3dx8:createmesh.obj
 0001:00045439       ?VCacheStripReorder@?$GXTri3Mesh@G$00$0PPPP@@@AAEJPAV?$CMeshStatus@G$00$0PPPP@@@PAI1@Z 10046439 f i d3dx8:createmesh.obj
 0001:0004579e       ?SGIStripReorder@?$GXTri3Mesh@I$0A@$0?0@@AAEJPAV?$CMeshStatus@I$0A@$0?0@@PAI1@Z 1004679e f i d3dx8:createmesh.obj
 0001:0004586e       ?VCacheStripReorder@?$GXTri3Mesh@I$0A@$0?0@@AAEJPAV?$CMeshStatus@I$0A@$0?0@@PAI1@Z 1004686e f i d3dx8:createmesh.obj
 0001:00045ba2       ?Init@CD3DXSkinMesh@@QAEJKKKKKPAUIDirect3DDevice8@@@Z 10046ba2 f   d3dx8:createmesh.obj
 0001:00045c2f       _D3DXCreateSkinMeshFVF@28  10046c2f f   d3dx8:createmesh.obj
 0001:00045c96       _D3DXCreateMeshFVF@24      10046c96 f   d3dx8:createmesh.obj
 0001:00045d5c       ?D3DXCreatePMeshFromData@@YGJPAUID3DXMesh@@KPAKPAEKPAPAUID3DXPMesh@@@Z 10046d5c f   d3dx8:createmesh.obj
 0001:00045e7b       ?CloneMeshFVF@?$GXTri3Mesh@G$00$0PPPP@@@UAGJKKPAUIDirect3DDevice8@@PAPAUID3DXMesh@@@Z 10046e7b f i d3dx8:createmesh.obj
 0001:00046021       ?CloneHelper16@?$GXTri3Mesh@G$00$0PPPP@@@AAEJPAV1@@Z 10047021 f i d3dx8:createmesh.obj
 0001:000461f0       ?CloneHelper32@?$GXTri3Mesh@G$00$0PPPP@@@AAEJPAV?$GXTri3Mesh@I$0A@$0?0@@@Z 100471f0 f i d3dx8:createmesh.obj
 0001:000463d1       ?CloneVertexBuffer@?$GXTri3Mesh@G$00$0PPPP@@@AAEJKPAUIDirect3DVertexBuffer8@@@Z 100473d1 f i d3dx8:createmesh.obj
 0001:000464aa       ?ClonePMeshFVF@?$GXHalfEdgePMesh@G$00$0PPPP@@@UAGJKKPAUIDirect3DDevice8@@PAPAUID3DXPMesh@@@Z 100474aa f i d3dx8:createmesh.obj
 0001:00046831       ?SetNumFaces@?$GXHalfEdgePMesh@G$00$0PPPP@@@UAGJK@Z 10047831 f i d3dx8:createmesh.obj
 0001:0004691c       ?UndoVSplit@?$GXHalfEdgePMesh@G$00$0PPPP@@@AAEXAAVCHalfEdgeVSplit@@@Z 1004791c f i d3dx8:createmesh.obj
 0001:00046b31       ?GatherECollapseInfo@?$GXHalfEdgePMesh@G$00$0PPPP@@@AAEXAAVCHalfEdgeVSplit@@@Z 10047b31 f i d3dx8:createmesh.obj
 0001:00046d4e       ?ApplyVSplit@?$GXHalfEdgePMesh@G$00$0PPPP@@@AAEXAAVCHalfEdgeVSplit@@@Z 10047d4e f i d3dx8:createmesh.obj
 0001:00046fb1       ?GatherVSplitInfo@?$GXHalfEdgePMesh@G$00$0PPPP@@@AAEXAAVCHalfEdgeVSplit@@@Z 10047fb1 f i d3dx8:createmesh.obj
 0001:000474bf       ?GetNextWedge@?$GXHalfEdgePMesh@G$00$0PPPP@@@AAEGI@Z 100484bf f i d3dx8:createmesh.obj
 0001:000474e1       ?SetNumVertices@?$GXHalfEdgePMesh@G$00$0PPPP@@@UAGJK@Z 100484e1 f i d3dx8:createmesh.obj
 0001:000475cc       ?SetNumFaces@?$GXHalfEdgePMesh@I$0A@$0?0@@UAGJK@Z 100485cc f i d3dx8:createmesh.obj
 0001:000476b7       ?UndoVSplit@?$GXHalfEdgePMesh@I$0A@$0?0@@AAEXAAVCHalfEdgeVSplit@@@Z 100486b7 f i d3dx8:createmesh.obj
 0001:0004789f       ?GatherECollapseInfo@?$GXHalfEdgePMesh@I$0A@$0?0@@AAEXAAVCHalfEdgeVSplit@@@Z 1004889f f i d3dx8:createmesh.obj
 0001:00047a90       ?ApplyVSplit@?$GXHalfEdgePMesh@I$0A@$0?0@@AAEXAAVCHalfEdgeVSplit@@@Z 10048a90 f i d3dx8:createmesh.obj
 0001:00047c9e       ?GatherVSplitInfo@?$GXHalfEdgePMesh@I$0A@$0?0@@AAEXAAVCHalfEdgeVSplit@@@Z 10048c9e f i d3dx8:createmesh.obj
 0001:00048155       ?GetNextWedge@?$GXHalfEdgePMesh@I$0A@$0?0@@AAEII@Z 10049155 f i d3dx8:createmesh.obj
 0001:00048177       ?SetNumVertices@?$GXHalfEdgePMesh@I$0A@$0?0@@UAGJK@Z 10049177 f i d3dx8:createmesh.obj
 0001:00048262       ?ClonePMeshFVF@?$GXSimplifyMesh@I$0A@$0?0@@UAGJKKPAUIDirect3DDevice8@@PAKPAPAUID3DXPMesh@@@Z 10049262 f i d3dx8:createmesh.obj
 0001:000487c8       ?FixupVSplitRecords@?$GXSimplifyMesh@I$0A@$0?0@@AAEJXZ 100497c8 f i d3dx8:createmesh.obj
 0001:0004884e       ?RemapVSplitRecords@?$GXSimplifyMesh@I$0A@$0?0@@AAEJPAI@Z 1004984e f i d3dx8:createmesh.obj
 0001:0004888f       ?RemapInternals@?$GXSimplifyMesh@I$0A@$0?0@@AAEJPAII0I@Z 1004988f f i d3dx8:createmesh.obj
 0001:000489cd       ?Compact@?$GXSimplifyMesh@I$0A@$0?0@@AAEJPAII0I@Z 100499cd f i d3dx8:createmesh.obj
 0001:00048c0b       ?Reorder@?$GXTri3Mesh@I$0A@$0?0@@AAEJPAII0I@Z 10049c0b f i d3dx8:createmesh.obj
 0001:00048d43       ?ClonePMeshFVF@?$GXSimplifyMesh@G$00$0PPPP@@@UAGJKKPAUIDirect3DDevice8@@PAKPAPAUID3DXPMesh@@@Z 10049d43 f i d3dx8:createmesh.obj
 0001:000492aa       ?FixupVSplitRecords@?$GXSimplifyMesh@G$00$0PPPP@@@AAEJXZ 1004a2aa f i d3dx8:createmesh.obj
 0001:00049331       ?RemapVSplitRecords@?$GXSimplifyMesh@G$00$0PPPP@@@AAEJPAI@Z 1004a331 f i d3dx8:createmesh.obj
 0001:00049372       ?RemapInternals@?$GXSimplifyMesh@G$00$0PPPP@@@AAEJPAII0I@Z 1004a372 f i d3dx8:createmesh.obj
 0001:000494c3       ?Compact@?$GXSimplifyMesh@G$00$0PPPP@@@AAEJPAII0I@Z 1004a4c3 f i d3dx8:createmesh.obj
 0001:00049720       ?Reorder@?$GXTri3Mesh@G$00$0PPPP@@@AAEJPAII0I@Z 1004a720 f i d3dx8:createmesh.obj
 0001:00049863       ?CreateHeap@?$GXSimplifyMesh@I$0A@$0?0@@AAEJPAE@Z 1004a863 f i d3dx8:createmesh.obj
 0001:0004998e       ?CreateHeap@?$GXSimplifyMesh@G$00$0PPPP@@@AAEJPAE@Z 1004a98e f i d3dx8:createmesh.obj
 0001:00049ac7       ?StripReorder@?$GXTri3Mesh@G$00$0PPPP@@@AAEJKPAI0PBK@Z 1004aac7 f i d3dx8:createmesh.obj
 0001:00049d77       ?StripReorder@?$GXTri3Mesh@I$0A@$0?0@@AAEJKPAI0PBK@Z 1004ad77 f i d3dx8:createmesh.obj
 0001:0004a025       _D3DXCreateSkinMesh@28     1004b025 f   d3dx8:createmesh.obj
 0001:0004a05d       _D3DXCreateMesh@24         1004b05d f   d3dx8:createmesh.obj
 0001:0004a08b       ?Release@?$GXSimplifyMesh@I$0A@$0?0@@UAGKXZ 1004b08b f i d3dx8:createmesh.obj
 0001:0004a0ac       ??1?$GXSimplifyMesh@I$0A@$0?0@@QAE@XZ 1004b0ac f i d3dx8:createmesh.obj
 0001:0004a250       ?Release@?$GXSimplifyMesh@G$00$0PPPP@@@UAGKXZ 1004b250 f i d3dx8:createmesh.obj
 0001:0004a271       ??1?$GXSimplifyMesh@G$00$0PPPP@@@QAE@XZ 1004b271 f i d3dx8:createmesh.obj
 0001:0004a415       ?OptimizeInternal@?$GXTri3Mesh@G$00$0PPPP@@@AAEJKPBKPAK1PAPAUID3DXBuffer@@PAUIDirect3DVertexBuffer8@@K@Z 1004b415 f i d3dx8:createmesh.obj
 0001:0004aa4f       ?OptimizeInternal@?$GXTri3Mesh@I$0A@$0?0@@AAEJKPBKPAK1PAPAUID3DXBuffer@@PAUIDirect3DVertexBuffer8@@K@Z 1004ba4f f i d3dx8:createmesh.obj
 0001:0004b077       ?Optimize@?$GXTri3Mesh@G$00$0PPPP@@@UAGJKPBKPAK1PAPAUID3DXBuffer@@PAPAUID3DXMesh@@@Z 1004c077 f i d3dx8:createmesh.obj
 0001:0004b1c4       ?OptimizeInplace@?$GXTri3Mesh@G$00$0PPPP@@@UAGJKPBKPAK1PAPAUID3DXBuffer@@@Z 1004c1c4 f i d3dx8:createmesh.obj
 0001:0004b22a       ?Optimize2@?$GXTri3Mesh@G$00$0PPPP@@@AAEJKKPAK00PAPAUID3DXBuffer@@KPAPAV1@@Z 1004c22a f i d3dx8:createmesh.obj
 0001:0004b32b       ?Optimize@?$GXTri3Mesh@I$0A@$0?0@@UAGJKPBKPAK1PAPAUID3DXBuffer@@PAPAUID3DXMesh@@@Z 1004c32b f i d3dx8:createmesh.obj
 0001:0004b478       ?OptimizeInplace@?$GXTri3Mesh@I$0A@$0?0@@UAGJKPBKPAK1PAPAUID3DXBuffer@@@Z 1004c478 f i d3dx8:createmesh.obj
 0001:0004b4de       ?SetupSimplification@?$GXSimplifyMesh@I$0A@$0?0@@QAEJPAV?$GXTri3Mesh@I$0A@$0?0@@PBKQAU_D3DXATTRIBUTEWEIGHTS@@PBM@Z 1004c4de f i d3dx8:createmesh.obj
 0001:0004b870       ?SetupSimplification@?$GXSimplifyMesh@G$00$0PPPP@@@QAEJPAV?$GXTri3Mesh@G$00$0PPPP@@@PBKQAU_D3DXATTRIBUTEWEIGHTS@@PBM@Z 1004c870 f i d3dx8:createmesh.obj
 0001:0004bc05       ?ConvertToBlendedMesh@CD3DXSkinMesh@@UAGJKQAKPAK1PAPAUID3DXBuffer@@PAPAUID3DXMesh@@@Z 1004cc05 f   d3dx8:createmesh.obj
 0001:0004cd6b       ?GenerateSkinnedMesh@CD3DXSkinMesh@@UAGJKMQAKPAKPAPAUID3DXMesh@@@Z 1004dd6b f   d3dx8:createmesh.obj
 0001:0004d1b7       ?ConvertToIndexedBlendedMesh@CD3DXSkinMesh@@UAGJKQAKKPAK1PAPAUID3DXBuffer@@PAPAUID3DXMesh@@@Z 1004e1b7 f   d3dx8:createmesh.obj
 0001:0004d8af       _D3DXCreateSPMesh@20       1004e8af f   d3dx8:createmesh.obj
 0001:0004d998       _D3DXGeneratePMesh@28      1004e998 f   d3dx8:createmesh.obj
 0001:0004da56       _D3DXSimplifyMesh@28       1004ea56 f   d3dx8:createmesh.obj
 0001:0004db16       ?ReduceFaces@?$GXSimplifyMesh@I$0A@$0?0@@UAGJK@Z 1004eb16 f i d3dx8:createmesh.obj
 0001:0004dbe6       ?PeiExtractMin@?$CSimplificationHeap@I@@QAEPAV?$CEdgeInfo@I@@XZ 1004ebe6 f i d3dx8:createmesh.obj
 0001:0004dc26       ?CollapseEdge@?$GXSimplifyMesh@I$0A@$0?0@@AAEJPAV?$CEdgeInfo@I@@PAE@Z 1004ec26 f i d3dx8:createmesh.obj
 0001:0004dd07       ?GatherEdgeCollapseData@?$GXSimplifyMesh@I$0A@$0?0@@AAEJAAU?$SEdgeCollapseContext@I@@PAV?$CEdgeInfo@I@@PAE@Z 1004ed07 f i d3dx8:createmesh.obj
 0001:0004dfaa       ?UpdateVSplitAdjustments@?$GXSimplifyMesh@I$0A@$0?0@@AAEJAAU?$SEdgeCollapseContext@I@@@Z 1004efaa f i d3dx8:createmesh.obj
 0001:0004e08c       ?CalculateVSplitRecord@?$GXSimplifyMesh@I$0A@$0?0@@AAEJAAU?$SEdgeCollapseContext@I@@PAE@Z 1004f08c f i d3dx8:createmesh.obj
 0001:0004e44b       ?AddHEPoint@?$GXSimplifyMesh@I$0A@$0?0@@AAEXPAEIG@Z 1004f44b f i d3dx8:createmesh.obj
 0001:0004e4a4       ?BValidEdgeCollapse@?$GXSimplifyMesh@I$0A@$0?0@@AAE_NAAU?$SEdgeCollapseContext@I@@PAE@Z 1004f4a4 f i d3dx8:createmesh.obj
 0001:0004eb5b       ?PerformEdgeCollapse@?$GXSimplifyMesh@I$0A@$0?0@@AAEJAAU?$SEdgeCollapseContext@I@@PAE@Z 1004fb5b f i d3dx8:createmesh.obj
 0001:0004ee69       ?MarkAsUnused@?$GXTri3Mesh@I$0A@$0?0@@AAEXI@Z 1004fe69 f i d3dx8:createmesh.obj
 0001:0004ee8f       ?RemoveWedgeElement@?$GXSimplifyMesh@I$0A@$0?0@@AAEXIIG@Z 1004fe8f f i d3dx8:createmesh.obj
 0001:0004eef6       ?RemoveWedge@?$GXSimplifyMesh@I$0A@$0?0@@AAEXIG@Z 1004fef6 f i d3dx8:createmesh.obj
 0001:0004ef37       ?Delete@?$CSimplificationHeap@I@@QAEJPAV?$CEdgeInfo@I@@@Z 1004ff37 f i d3dx8:createmesh.obj
 0001:0004ef72       ?UpdateErrorMeasurements@?$GXSimplifyMesh@I$0A@$0?0@@AAEJAAU?$SEdgeCollapseContext@I@@PAE@Z 1004ff72 f i d3dx8:createmesh.obj
 0001:0004f068       ?RecalcEdgeQEMS_Plane@?$GXSimplifyMesh@I$0A@$0?0@@AAEXIIPAE@Z 10050068 f i d3dx8:createmesh.obj
 0001:0004f137       ?Update@?$CSimplificationHeap@I@@QAEJPAV?$CEdgeInfo@I@@@Z 10050137 f i d3dx8:createmesh.obj
 0001:0004f15a       ?ReduceVertices@?$GXSimplifyMesh@I$0A@$0?0@@UAGJK@Z 1005015a f i d3dx8:createmesh.obj
 0001:0004f22a       ?ReduceFaces@?$GXSimplifyMesh@G$00$0PPPP@@@UAGJK@Z 1005022a f i d3dx8:createmesh.obj
 0001:0004f2fa       ?PeiExtractMin@?$CSimplificationHeap@G@@QAEPAV?$CEdgeInfo@G@@XZ 100502fa f i d3dx8:createmesh.obj
 0001:0004f33a       ?CollapseEdge@?$GXSimplifyMesh@G$00$0PPPP@@@AAEJPAV?$CEdgeInfo@G@@PAE@Z 1005033a f i d3dx8:createmesh.obj
 0001:0004f415       ?GatherEdgeCollapseData@?$GXSimplifyMesh@G$00$0PPPP@@@AAEJAAU?$SEdgeCollapseContext@G@@PAV?$CEdgeInfo@G@@PAE@Z 10050415 f i d3dx8:createmesh.obj
 0001:0004f740       ?UpdateVSplitAdjustments@?$GXSimplifyMesh@G$00$0PPPP@@@AAEJAAU?$SEdgeCollapseContext@G@@@Z 10050740 f i d3dx8:createmesh.obj
 0001:0004f82c       ?CalculateVSplitRecord@?$GXSimplifyMesh@G$00$0PPPP@@@AAEJAAU?$SEdgeCollapseContext@G@@PAE@Z 1005082c f i d3dx8:createmesh.obj
 0001:0004fc5e       ?AddHEPoint@?$GXSimplifyMesh@G$00$0PPPP@@@AAEXPAEGG@Z 10050c5e f i d3dx8:createmesh.obj
 0001:0004fcb6       ?BValidEdgeCollapse@?$GXSimplifyMesh@G$00$0PPPP@@@AAE_NAAU?$SEdgeCollapseContext@G@@PAE@Z 10050cb6 f i d3dx8:createmesh.obj
 0001:00050415       ?PerformEdgeCollapse@?$GXSimplifyMesh@G$00$0PPPP@@@AAEJAAU?$SEdgeCollapseContext@G@@PAE@Z 10051415 f i d3dx8:createmesh.obj
 0001:00050788       ?MarkAsUnused@?$GXTri3Mesh@G$00$0PPPP@@@AAEXG@Z 10051788 f i d3dx8:createmesh.obj
 0001:000507b1       ?RemoveWedgeElement@?$GXSimplifyMesh@G$00$0PPPP@@@AAEXGGG@Z 100517b1 f i d3dx8:createmesh.obj
 0001:0005082d       ?RemoveWedge@?$GXSimplifyMesh@G$00$0PPPP@@@AAEXGG@Z 1005182d f i d3dx8:createmesh.obj
 0001:0005087d       ?Delete@?$CSimplificationHeap@G@@QAEJPAV?$CEdgeInfo@G@@@Z 1005187d f i d3dx8:createmesh.obj
 0001:000508b8       ?UpdateErrorMeasurements@?$GXSimplifyMesh@G$00$0PPPP@@@AAEJAAU?$SEdgeCollapseContext@G@@PAE@Z 100518b8 f i d3dx8:createmesh.obj
 0001:000509dc       ?RecalcEdgeQEMS_Plane@?$GXSimplifyMesh@G$00$0PPPP@@@AAEXGGPAE@Z 100519dc f i d3dx8:createmesh.obj
 0001:00050a99       ?Update@?$CSimplificationHeap@G@@QAEJPAV?$CEdgeInfo@G@@@Z 10051a99 f i d3dx8:createmesh.obj
 0001:00050abc       ?ReduceVertices@?$GXSimplifyMesh@G$00$0PPPP@@@UAGJK@Z 10051abc f i d3dx8:createmesh.obj
 0001:00050b8c       ?Init@SLoadedFace@@QAEXKKK@Z 10051b8c f i d3dx8:loadutil.obj
 0001:00050ba7       ?InitEmpty@SLoadedFace@@QAEXXZ 10051ba7 f i d3dx8:loadutil.obj
 0001:00050bb3       ?FindPoint@@YAKPAKKPAUSLoadVertex@@@Z 10051bb3 f   d3dx8:loadutil.obj
 0001:00050bdd       ??0SCorner@@QAE@XZ         10051bdd f i d3dx8:loadutil.obj
 0001:00050be0       ?ConvertColor@@YAKAAUD3DXCOLOR@@@Z 10051be0 f   d3dx8:loadutil.obj
 0001:00050ca9       ??8D3DXVECTOR2@@QBEHABU0@@Z 10051ca9 f i d3dx8:loadutil.obj
 0001:00050ccf       ??9D3DXVECTOR2@@QBEHABU0@@Z 10051ccf f i d3dx8:loadutil.obj
 0001:00050cf5       ??8D3DXVECTOR3@@QBEHABU0@@Z 10051cf5 f i d3dx8:loadutil.obj
 0001:00050d28       ??9D3DXVECTOR3@@QBEHABU0@@Z 10051d28 f i d3dx8:loadutil.obj
 0001:00050d5b       ?CreateMaterialBuffer@@YAJPAUD3DXMATERIAL@@KPAPAUID3DXBuffer@@@Z 10051d5b f   d3dx8:loadutil.obj
 0001:00050e52       ?MergeMaterialBuffers@@YAJPAUID3DXBuffer@@K0KPAPAU1@@Z 10051e52 f   d3dx8:loadutil.obj
 0001:00050f1a       ??8D3DXCOLOR@@QBEHABU0@@Z  10051f1a f i d3dx8:loadutil.obj
 0001:00050f5a       ??9D3DXCOLOR@@QBEHABU0@@Z  10051f5a f i d3dx8:loadutil.obj
 0001:00050f9a       ?SetTex1@DXCrackFVF@@QAEXPAXPAUD3DXVECTOR2@@@Z 10051f9a f i d3dx8:loadutil.obj
 0001:00050fba       ?SetTexCoord@DXCrackFVF@@QAEXPAXIPAUD3DXVECTOR2@@@Z 10051fba f i d3dx8:loadutil.obj
 0001:00050fe2       ??0SLoadedFace@@QAE@XZ     10051fe2 f i d3dx8:loadutil.obj
 0001:00050ff4       ??0SLoadVertex@@QAE@XZ     10051ff4 f i d3dx8:loadutil.obj
 0001:00050ff7       ?InitVertices@@YAJAAPAUSLoadVertex@@K@Z 10051ff7 f   d3dx8:loadutil.obj
 0001:000510da       ?InitCorners@@YAJAAPAUSCorner@@K@Z 100520da f   d3dx8:loadutil.obj
 0001:00051170       ?InitFaces@@YAJAAPAUSLoadedFace@@K@Z 10052170 f   d3dx8:loadutil.obj
 0001:000511e1       ?BEqualWedges@@YA_NAAUSLoadVertex@@0@Z 100521e1 f   d3dx8:loadutil.obj
 0001:00051265       ?AddToDynamicArray@@YAHPAPAUSLoadVertex@@ABU1@PAK2@Z 10052265 f i d3dx8:loadutil.obj
 0001:0005132b       ?SetVertexColor@@YAJPAUSLoadedFace@@KAAUD3DXCOLOR@@PAPAUSLoadVertex@@PAK3@Z 1005232b f   d3dx8:loadutil.obj
 0001:00051457       ?SetVertexAttributes@@YAJPAUSLoadedFace@@KPAUD3DXVECTOR3@@PAUD3DXVECTOR2@@PAPAUSLoadVertex@@PAK4@Z 10052457 f   d3dx8:loadutil.obj
 0001:000515c0       ?SetSmoothingGroup@@YAJPAUSLoadedFace@@KGAAUD3DXVECTOR3@@PAPAUSLoadVertex@@PAK3@Z 100525c0 f   d3dx8:loadutil.obj
 0001:00051721       ?SetMesh@@YAJAAPAUSLoadedFace@@KAAPAUSLoadVertex@@KPAUSCorner@@KPAUSFVFData@@HKKPAUIDirect3DDevice8@@PAPAUID3DXMesh@@PAPAUID3DXBuffer@@@Z 10052721 f   d3dx8:loadutil.obj
 0001:00051e0f       ??1CD3DXBuffer@@QAE@XZ     10052e0f f   d3dx8:cd3dxbuffer.obj
 0001:00051e24       ?Init@CD3DXBuffer@@QAEJK@Z 10052e24 f   d3dx8:cd3dxbuffer.obj
 0001:00051e4a       ?AddRef@CD3DXBuffer@@UAGKXZ 10052e4a f   d3dx8:cd3dxbuffer.obj
 0001:00051e57       ?GetBufferPointer@CD3DXBuffer@@UAGPAXXZ 10052e57 f   d3dx8:cd3dxbuffer.obj
 0001:00051e61       ?GetBufferSize@CD3DXBuffer@@UAGKXZ 10052e61 f   d3dx8:cd3dxbuffer.obj
 0001:00051e6b       ?Grow@CD3DXBuffer@@IAEJK@Z 10052e6b f   d3dx8:cd3dxbuffer.obj
 0001:00051ec0       ?Init@CD3DXStringBuffer@@QAEJK@Z 10052ec0 f   d3dx8:cd3dxbuffer.obj
 0001:00051ee4       ??1CD3DXStringBuffer@@QAE@XZ 10052ee4 f i d3dx8:cd3dxbuffer.obj
 0001:00051ee9       ?AddString@CD3DXStringBuffer@@QAEJPAD@Z 10052ee9 f   d3dx8:cd3dxbuffer.obj
 0001:00051fe8       ??0ID3DXBuffer@@QAE@XZ     10052fe8 f i d3dx8:cd3dxbuffer.obj
 0001:00051feb       ?QueryInterface@CD3DXBuffer@@UAGJABU_GUID@@PAPAX@Z 10052feb f   d3dx8:cd3dxbuffer.obj
 0001:00052032       ?Release@CD3DXBuffer@@UAGKXZ 10053032 f   d3dx8:cd3dxbuffer.obj
 0001:0005205b       ??_GCD3DXStringBuffer@@QAEPAXI@Z 1005305b f i d3dx8:cd3dxbuffer.obj
 0001:00052077       ??0CD3DXBuffer@@QAE@XZ     10053077 f   d3dx8:cd3dxbuffer.obj
 0001:0005208f       ??0CD3DXStringBuffer@@QAE@XZ 1005308f f   d3dx8:cd3dxbuffer.obj
 0001:000520a5       ?D3DXCreateStringBuffer@@YAJKPAPAVCD3DXStringBuffer@@@Z 100530a5 f   d3dx8:cd3dxbuffer.obj
 0001:000520fb       ??0CD3DXBlt@@QAE@XZ        100530fb f   d3dx8:cd3dxblt.obj
 0001:00052105       ??1CD3DXBlt@@QAE@XZ        10053105 f   d3dx8:cd3dxblt.obj
 0001:00052123       _floorf                    10053123 f i d3dx8:cd3dxblt.obj
 0001:00052134       ??1TF_Row@@QAE@XZ          10053134 f i d3dx8:cd3dxblt.obj
 0001:00052156       ??_GTF_Row@@QAEPAXI@Z      10053156 f i d3dx8:cd3dxblt.obj
 0001:00052413       ?BltTriangle2D@CD3DXBlt@@IAEJXZ 10053413 f   d3dx8:cd3dxblt.obj
 0001:000527c9       ?BltTriangle3D@CD3DXBlt@@IAEJXZ 100537c9 f   d3dx8:cd3dxblt.obj
 0001:00052ca0       ??HD3DXCOLOR@@QBE?AU0@ABU0@@Z 10053ca0 f i d3dx8:cd3dxblt.obj
 0001:00052ccc       ??DD3DXCOLOR@@QBE?AU0@M@Z  10053ccc f i d3dx8:cd3dxblt.obj
 0001:00052cf8       ?BltSame_DXTn@CD3DXBlt@@IAEJXZ 10053cf8 f   d3dx8:cd3dxblt.obj
 0001:00052e79       ?BltBox2D_R8G8B8@CD3DXBlt@@IAEJXZ 10053e79 f   d3dx8:cd3dxblt.obj
 0001:00052e7f       ?BltBox2D_A8R8G8B8@CD3DXBlt@@IAEJXZ 10053e7f f   d3dx8:cd3dxblt.obj
 0001:00052fdd       ?BltBox2D_X8R8G8B8@CD3DXBlt@@IAEJXZ 10053fdd f   d3dx8:cd3dxblt.obj
 0001:000530f9       ?BltBox2D_R5G6B5@CD3DXBlt@@IAEJXZ 100540f9 f   d3dx8:cd3dxblt.obj
 0001:00053249       ?BltBox2D_X1R5G5B5@CD3DXBlt@@IAEJXZ 10054249 f   d3dx8:cd3dxblt.obj
 0001:0005336d       ?BltBox2D_A1R5G5B5@CD3DXBlt@@IAEJXZ 1005436d f   d3dx8:cd3dxblt.obj
 0001:000534bc       ?BltBox2D_A4R4G4B4@CD3DXBlt@@IAEJXZ 100544bc f   d3dx8:cd3dxblt.obj
 0001:0005360f       ?BltBox2D_R3G3B2@CD3DXBlt@@IAEJXZ 1005460f f   d3dx8:cd3dxblt.obj
 0001:0005374e       ?BltBox2D_A8@CD3DXBlt@@IAEJXZ 1005474e f   d3dx8:cd3dxblt.obj
 0001:000537e9       ?BltBox2D_A8R3G3B2@CD3DXBlt@@IAEJXZ 100547e9 f   d3dx8:cd3dxblt.obj
 0001:00053935       ?BltBox2D_X4R4G4B4@CD3DXBlt@@IAEJXZ 10054935 f   d3dx8:cd3dxblt.obj
 0001:00053a56       ?BltBox2D_A8P8@CD3DXBlt@@IAEJXZ 10054a56 f   d3dx8:cd3dxblt.obj
 0001:00053a5c       ?BltBox2D_P8@CD3DXBlt@@IAEJXZ 10054a5c f   d3dx8:cd3dxblt.obj
 0001:00053a62       ?BltBox2D_A8L8@CD3DXBlt@@IAEJXZ 10054a62 f   d3dx8:cd3dxblt.obj
 0001:00053bae       ?BltBox2D_A4L4@CD3DXBlt@@IAEJXZ 10054bae f   d3dx8:cd3dxblt.obj
 0001:00053d2f       ?BltSame@CD3DXBlt@@IAEJXZ  10054d2f f   d3dx8:cd3dxblt.obj
 0001:00053e61       ?BltCopy@CD3DXBlt@@IAEJXZ  10054e61 f   d3dx8:cd3dxblt.obj
 0001:00053f03       ?BltNone@CD3DXBlt@@IAEJXZ  10054f03 f   d3dx8:cd3dxblt.obj
 0001:00054078       ?BltPoint@CD3DXBlt@@IAEJXZ 10055078 f   d3dx8:cd3dxblt.obj
 0001:0005420e       ?BltBox2D@CD3DXBlt@@IAEJXZ 1005520e f   d3dx8:cd3dxblt.obj
 0001:000545a3       ?BltBox3D@CD3DXBlt@@IAEJXZ 100555a3 f   d3dx8:cd3dxblt.obj
 0001:00054a1d       ?BltLinear2D@CD3DXBlt@@IAEJXZ 10055a1d f   d3dx8:cd3dxblt.obj
 0001:00054d5e       ?BltLinear3D@CD3DXBlt@@IAEJXZ 10055d5e f   d3dx8:cd3dxblt.obj
 0001:000553ab       ?Blt@CD3DXBlt@@QAEJPAUD3DX_BLT@@0K@Z 100563ab f   d3dx8:cd3dxblt.obj
 0001:000554bd       ??0CD3DXImage@@QAE@XZ      100564bd f   d3dx8:cd3dximage.obj
 0001:000554d6       ??1CD3DXImage@@QAE@XZ      100564d6 f   d3dx8:cd3dximage.obj
 0001:0005552f       ??_GCD3DXImage@@QAEPAXI@Z  1005652f f i d3dx8:cd3dximage.obj
 0001:0005554b       ?LoadDIB@CD3DXImage@@AAEJPBXK@Z 1005654b f   d3dx8:cd3dximage.obj
 0001:00055be8       ?LoadJPG@CD3DXImage@@AAEJPBXK@Z 10056be8 f   d3dx8:cd3dximage.obj
 0001:00055e3d       ?LoadTGA@CD3DXImage@@AAEJPBXK@Z 10056e3d f   d3dx8:cd3dximage.obj
 0001:000562b5       ?LoadPPM@CD3DXImage@@AAEJPBXK@Z 100572b5 f   d3dx8:cd3dximage.obj
 0001:00056586       ?LoadPNG@CD3DXImage@@AAEJPBXK@Z 10057586 f   d3dx8:cd3dximage.obj
 0001:00056a9c       ?LoadDDS@CD3DXImage@@AAEJPBXK@Z 10057a9c f   d3dx8:cd3dximage.obj
 0001:00056daf       ?LoadBMP@CD3DXImage@@AAEJPBXK@Z 10057daf f   d3dx8:cd3dximage.obj
 0001:00056ddf       ?Load@CD3DXImage@@QAEJPBXKPAU_D3DXIMAGE_INFO@@@Z 10057ddf f   d3dx8:cd3dximage.obj
 0001:00056f39       ??0CD3DXResource@@QAE@XZ   10057f39 f   d3dx8:cd3dxresource.obj
 0001:00056f46       ??1CD3DXResource@@QAE@XZ   10057f46 f   d3dx8:cd3dxresource.obj
 0001:00056f54       ?Close@CD3DXResource@@QAEJXZ 10057f54 f   d3dx8:cd3dxresource.obj
 0001:00056f73       ?Open@CD3DXResource@@QAEJPAUHINSTANCE__@@PBXH@Z 10057f73 f   d3dx8:cd3dxresource.obj
 0001:00056ff3       ??0CD3DXText@@IAE@XZ       10057ff3 f   d3dx8:cd3dxtext.obj
 0001:00057032       ??1CD3DXText@@IAE@XZ       10058032 f   d3dx8:cd3dxtext.obj
 0001:000570fd       ?AddRef@CD3DXText@@QAEXXZ  100580fd f   d3dx8:cd3dxtext.obj
 0001:00057100       ??_GCD3DXText@@IAEPAXI@Z   10058100 f i d3dx8:cd3dxtext.obj
 0001:0005711c       ?Initialize@CD3DXText@@IAEJPAUIDirect3DDevice8@@@Z 1005811c f   d3dx8:cd3dxtext.obj
 0001:000572d6       ?Begin@CD3DXText@@QAEJXZ   100582d6 f   d3dx8:cd3dxtext.obj
 0001:00057318       ?End@CD3DXText@@QAEJXZ     10058318 f   d3dx8:cd3dxtext.obj
 0001:00057348       ?Release@CD3DXText@@QAEXXZ 10058348 f   d3dx8:cd3dxtext.obj
 0001:0005735d       ?Create@CD3DXText@@SAJPAUIDirect3DDevice8@@PAPAV1@@Z 1005835d f   d3dx8:cd3dxtext.obj
 0001:000573d9       ?DrawTextAW@CD3DXText@@QAEHPAUHFONT__@@PBXHPAUtagRECT@@KKH@Z 100583d9 f   d3dx8:cd3dxtext.obj
 0001:00057973       ??0CD3DXDwStack@@QAE@XZ    10058973 f   d3dx8:cd3dxstack.obj
 0001:00057983       ??1CD3DXDwStack@@QAE@XZ    10058983 f   d3dx8:cd3dxstack.obj
 0001:00057991       ?Push@CD3DXDwStack@@QAEJK@Z 10058991 f   d3dx8:cd3dxstack.obj
 0001:000579ff       ?Pop@CD3DXDwStack@@QAEJPAK@Z 100589ff f   d3dx8:cd3dxstack.obj
 0001:00057a33       ?GetLastError@CD3DXDwStack@@QAEJXZ 10058a33 f   d3dx8:cd3dxstack.obj
 0001:00057a3b       ??0CD3DXSzStack@@QAE@XZ    10058a3b f   d3dx8:cd3dxstack.obj
 0001:00057a4b       ??1CD3DXSzStack@@QAE@XZ    10058a4b f   d3dx8:cd3dxstack.obj
 0001:00057a7c       ?Push@CD3DXSzStack@@QAEJPAD@Z 10058a7c f   d3dx8:cd3dxstack.obj
 0001:00057b2b       ?Pop@CD3DXSzStack@@QAEJPAPAD@Z 10058b2b f   d3dx8:cd3dxstack.obj
 0001:00057b5f       ?GetLastError@CD3DXSzStack@@QAEJXZ 10058b5f f   d3dx8:cd3dxstack.obj
 0001:00057b67       ??1CD3DXCodec@@UAE@XZ      10058b67 f   d3dx8:cd3dxcodec.obj
 0001:00057b6e       ?Decode@CD3DXCodec@@UAEXIIPAUD3DXCOLOR@@@Z 10058b6e f   d3dx8:cd3dxcodec.obj
 0001:00057b71       ?Encode@CD3DXCodec@@UAEXIIPAUD3DXCOLOR@@@Z 10058b71 f   d3dx8:cd3dxcodec.obj
 0001:00057b74       ?Decode@CD3DXCodec_V8U8@@UAEXIIPAUD3DXCOLOR@@@Z 10058b74 f   d3dx8:cd3dxcodec.obj
 0001:00057bdd       ?Decode@CD3DXCodec_L6V5U5@@UAEXIIPAUD3DXCOLOR@@@Z 10058bdd f   d3dx8:cd3dxcodec.obj
 0001:00057c73       ?Decode@CD3DXCodec_X8L8V8U8@@UAEXIIPAUD3DXCOLOR@@@Z 10058c73 f   d3dx8:cd3dxcodec.obj
 0001:00057ceb       ?Decode@CD3DXCodec_Q8W8V8U8@@UAEXIIPAUD3DXCOLOR@@@Z 10058ceb f   d3dx8:cd3dxcodec.obj
 0001:00057d69       ?Decode@CD3DXCodec_V16U16@@UAEXIIPAUD3DXCOLOR@@@Z 10058d69 f   d3dx8:cd3dxcodec.obj
 0001:00057dd3       ?Decode@CD3DXCodec_W11V11U10@@UAEXIIPAUD3DXCOLOR@@@Z 10058dd3 f   d3dx8:cd3dxcodec.obj
 0001:00057e72       ??GD3DXCOLOR@@QBE?AU0@ABU0@@Z 10058e72 f i d3dx8:cd3dxcodec.obj
 0001:00057ee0       ??0CD3DXCodec@@IAE@PAUD3DX_BLT@@IK@Z 10058ee0 f   d3dx8:cd3dxcodec.obj
 0001:000580c9       ??_GCD3DXCodec@@UAEPAXI@Z  100590c9 f i d3dx8:cd3dxcodec.obj
 0001:000580c9       ??_ECD3DXCodec@@UAEPAXI@Z  100590c9 f i d3dx8:cd3dxcodec.obj
 0001:000580e5       ?ColorKey@CD3DXCodec@@IAEXPAUD3DXCOLOR@@@Z 100590e5 f   d3dx8:cd3dxcodec.obj
 0001:00058155       ?Encode@CD3DXCodec_R8G8B8@@UAEXIIPAUD3DXCOLOR@@@Z 10059155 f   d3dx8:cd3dxcodec.obj
 0001:00058216       ?Encode@CD3DXCodec_A8R8G8B8@@UAEXIIPAUD3DXCOLOR@@@Z 10059216 f   d3dx8:cd3dxcodec.obj
 0001:0005830f       ?Encode@CD3DXCodec_X8R8G8B8@@UAEXIIPAUD3DXCOLOR@@@Z 1005930f f   d3dx8:cd3dxcodec.obj
 0001:000583e6       ?Encode@CD3DXCodec_R5G6B5@@UAEXIIPAUD3DXCOLOR@@@Z 100593e6 f   d3dx8:cd3dxcodec.obj
 0001:000584bd       ?Encode@CD3DXCodec_X1R5G5B5@@UAEXIIPAUD3DXCOLOR@@@Z 100594bd f   d3dx8:cd3dxcodec.obj
 0001:00058594       ?Encode@CD3DXCodec_A1R5G5B5@@UAEXIIPAUD3DXCOLOR@@@Z 10059594 f   d3dx8:cd3dxcodec.obj
 0001:00058687       ?Encode@CD3DXCodec_A4R4G4B4@@UAEXIIPAUD3DXCOLOR@@@Z 10059687 f   d3dx8:cd3dxcodec.obj
 0001:00058780       ?Encode@CD3DXCodec_R3G3B2@@UAEXIIPAUD3DXCOLOR@@@Z 10059780 f   d3dx8:cd3dxcodec.obj
 0001:00058851       ?Encode@CD3DXCodec_A8@@UAEXIIPAUD3DXCOLOR@@@Z 10059851 f   d3dx8:cd3dxcodec.obj
 0001:000588d3       ?Encode@CD3DXCodec_A8R3G3B2@@UAEXIIPAUD3DXCOLOR@@@Z 100598d3 f   d3dx8:cd3dxcodec.obj
 0001:000589cc       ?Encode@CD3DXCodec_X4R4G4B4@@UAEXIIPAUD3DXCOLOR@@@Z 100599cc f   d3dx8:cd3dxcodec.obj
 0001:00058aa3       ?Encode@CD3DXCodec_A8P8@@UAEXIIPAUD3DXCOLOR@@@Z 10059aa3 f   d3dx8:cd3dxcodec.obj
 0001:00058ba0       ?Encode@CD3DXCodec_P8@@UAEXIIPAUD3DXCOLOR@@@Z 10059ba0 f   d3dx8:cd3dxcodec.obj
 0001:00058c5a       ?Encode@CD3DXCodec_L8@@UAEXIIPAUD3DXCOLOR@@@Z 10059c5a f   d3dx8:cd3dxcodec.obj
 0001:00058cf8       ?Encode@CD3DXCodec_A8L8@@UAEXIIPAUD3DXCOLOR@@@Z 10059cf8 f   d3dx8:cd3dxcodec.obj
 0001:00058dc8       ?Encode@CD3DXCodec_A4L4@@UAEXIIPAUD3DXCOLOR@@@Z 10059dc8 f   d3dx8:cd3dxcodec.obj
 0001:00058e90       ?Encode@CD3DXCodec_V8U8@@UAEXIIPAUD3DXCOLOR@@@Z 10059e90 f   d3dx8:cd3dxcodec.obj
 0001:00058f40       ?Encode@CD3DXCodec_L6V5U5@@UAEXIIPAUD3DXCOLOR@@@Z 10059f40 f   d3dx8:cd3dxcodec.obj
 0001:0005901f       ?Encode@CD3DXCodec_X8L8V8U8@@UAEXIIPAUD3DXCOLOR@@@Z 1005a01f f   d3dx8:cd3dxcodec.obj
 0001:00059106       ?Encode@CD3DXCodec_Q8W8V8U8@@UAEXIIPAUD3DXCOLOR@@@Z 1005a106 f   d3dx8:cd3dxcodec.obj
 0001:00059217       ?Encode@CD3DXCodec_V16U16@@UAEXIIPAUD3DXCOLOR@@@Z 1005a217 f   d3dx8:cd3dxcodec.obj
 0001:000592c8       ?Encode@CD3DXCodec_W11V11U10@@UAEXIIPAUD3DXCOLOR@@@Z 1005a2c8 f   d3dx8:cd3dxcodec.obj
 0001:000593b4       ?Decode@CD3DXCodec_R8G8B8@@UAEXIIPAUD3DXCOLOR@@@Z 1005a3b4 f   d3dx8:cd3dxcodec.obj
 0001:00059440       ?Decode@CD3DXCodec_A8R8G8B8@@UAEXIIPAUD3DXCOLOR@@@Z 1005a440 f   d3dx8:cd3dxcodec.obj
 0001:000594e2       ?Decode@CD3DXCodec_X8R8G8B8@@UAEXIIPAUD3DXCOLOR@@@Z 1005a4e2 f   d3dx8:cd3dxcodec.obj
 0001:0005957a       ?Decode@CD3DXCodec_R5G6B5@@UAEXIIPAUD3DXCOLOR@@@Z 1005a57a f   d3dx8:cd3dxcodec.obj
 0001:0005961f       ?Decode@CD3DXCodec_X1R5G5B5@@UAEXIIPAUD3DXCOLOR@@@Z 1005a61f f   d3dx8:cd3dxcodec.obj
 0001:000596c1       ?Decode@CD3DXCodec_A1R5G5B5@@UAEXIIPAUD3DXCOLOR@@@Z 1005a6c1 f   d3dx8:cd3dxcodec.obj
 0001:00059771       ?Decode@CD3DXCodec_A4R4G4B4@@UAEXIIPAUD3DXCOLOR@@@Z 1005a771 f   d3dx8:cd3dxcodec.obj
 0001:00059820       ?Decode@CD3DXCodec_R3G3B2@@UAEXIIPAUD3DXCOLOR@@@Z 1005a820 f   d3dx8:cd3dxcodec.obj
 0001:000598c2       ?Decode@CD3DXCodec_A8@@UAEXIIPAUD3DXCOLOR@@@Z 1005a8c2 f   d3dx8:cd3dxcodec.obj
 0001:00059934       ?Decode@CD3DXCodec_A8R3G3B2@@UAEXIIPAUD3DXCOLOR@@@Z 1005a934 f   d3dx8:cd3dxcodec.obj
 0001:000599e6       ?Decode@CD3DXCodec_X4R4G4B4@@UAEXIIPAUD3DXCOLOR@@@Z 1005a9e6 f   d3dx8:cd3dxcodec.obj
 0001:00059a85       ?Decode@CD3DXCodec_A8P8@@UAEXIIPAUD3DXCOLOR@@@Z 1005aa85 f   d3dx8:cd3dxcodec.obj
 0001:00059b0c       ?Decode@CD3DXCodec_P8@@UAEXIIPAUD3DXCOLOR@@@Z 1005ab0c f   d3dx8:cd3dxcodec.obj
 0001:00059b70       ?Decode@CD3DXCodec_L8@@UAEXIIPAUD3DXCOLOR@@@Z 1005ab70 f   d3dx8:cd3dxcodec.obj
 0001:00059bde       ?Decode@CD3DXCodec_A8L8@@UAEXIIPAUD3DXCOLOR@@@Z 1005abde f   d3dx8:cd3dxcodec.obj
 0001:00059c67       ?Decode@CD3DXCodec_A4L4@@UAEXIIPAUD3DXCOLOR@@@Z 1005ac67 f   d3dx8:cd3dxcodec.obj
 0001:00059cf0       ??0CD3DXCodecYUV@@QAE@PAUD3DX_BLT@@@Z 1005acf0 f   d3dx8:cd3dxcodec.obj
 0001:00059dc1       ?Commit@CD3DXCodecYUV@@QAEJXZ 1005adc1 f   d3dx8:cd3dxcodec.obj
 0001:00059fb4       ?Fetch@CD3DXCodecYUV@@QAEJIIH@Z 1005afb4 f   d3dx8:cd3dxcodec.obj
 0001:0005a285       ?Encode@CD3DXCodecYUV@@UAEXIIPAUD3DXCOLOR@@@Z 1005b285 f   d3dx8:cd3dxcodec.obj
 0001:0005a2fd       ?Decode@CD3DXCodecYUV@@UAEXIIPAUD3DXCOLOR@@@Z 1005b2fd f   d3dx8:cd3dxcodec.obj
 0001:0005a36c       ??0CD3DXCodecDXT@@QAE@PAUD3DX_BLT@@@Z 1005b36c f   d3dx8:cd3dxcodec.obj
 0001:0005a483       ?Commit@CD3DXCodecDXT@@QAEJXZ 1005b483 f   d3dx8:cd3dxcodec.obj
 0001:0005a7b0       ?Fetch@CD3DXCodecDXT@@QAEJIIH@Z 1005b7b0 f   d3dx8:cd3dxcodec.obj
 0001:0005aa57       ??0CD3DXCodec_R8G8B8@@QAE@PAUD3DX_BLT@@@Z 1005ba57 f i d3dx8:cd3dxcodec.obj
 0001:0005aa73       ??_ECD3DXCodec_R8G8B8@@UAEPAXI@Z 1005ba73 f i d3dx8:cd3dxcodec.obj
 0001:0005aa73       ??_GCD3DXCodec_R8G8B8@@UAEPAXI@Z 1005ba73 f i d3dx8:cd3dxcodec.obj
 0001:0005aa8f       ??1CD3DXCodec_R8G8B8@@UAE@XZ 1005ba8f f i d3dx8:cd3dxcodec.obj
 0001:0005aa94       ?Encode@CD3DXCodecDXT@@UAEXIIPAUD3DXCOLOR@@@Z 1005ba94 f   d3dx8:cd3dxcodec.obj
 0001:0005ab1a       ??0CD3DXCodec_A8R8G8B8@@QAE@PAUD3DX_BLT@@@Z 1005bb1a f i d3dx8:cd3dxcodec.obj
 0001:0005ab36       ??_ECD3DXCodec_A8R8G8B8@@UAEPAXI@Z 1005bb36 f i d3dx8:cd3dxcodec.obj
 0001:0005ab36       ??_GCD3DXCodec_A8R8G8B8@@UAEPAXI@Z 1005bb36 f i d3dx8:cd3dxcodec.obj
 0001:0005ab52       ??1CD3DXCodec_A8R8G8B8@@UAE@XZ 1005bb52 f i d3dx8:cd3dxcodec.obj
 0001:0005ab57       ?Decode@CD3DXCodecDXT@@UAEXIIPAUD3DXCOLOR@@@Z 1005bb57 f   d3dx8:cd3dxcodec.obj
 0001:0005abcb       ??0CD3DXCodec_X8R8G8B8@@QAE@PAUD3DX_BLT@@@Z 1005bbcb f i d3dx8:cd3dxcodec.obj
 0001:0005abe7       ??_ECD3DXCodec_X8R8G8B8@@UAEPAXI@Z 1005bbe7 f i d3dx8:cd3dxcodec.obj
 0001:0005abe7       ??_GCD3DXCodec_X8R8G8B8@@UAEPAXI@Z 1005bbe7 f i d3dx8:cd3dxcodec.obj
 0001:0005ac03       ??1CD3DXCodec_X8R8G8B8@@UAE@XZ 1005bc03 f i d3dx8:cd3dxcodec.obj
 0001:0005ac08       ??0CD3DXCodec_R5G6B5@@QAE@PAUD3DX_BLT@@@Z 1005bc08 f i d3dx8:cd3dxcodec.obj
 0001:0005ac24       ??_GCD3DXCodec_R5G6B5@@UAEPAXI@Z 1005bc24 f i d3dx8:cd3dxcodec.obj
 0001:0005ac24       ??_ECD3DXCodec_R5G6B5@@UAEPAXI@Z 1005bc24 f i d3dx8:cd3dxcodec.obj
 0001:0005ac40       ??1CD3DXCodec_R5G6B5@@UAE@XZ 1005bc40 f i d3dx8:cd3dxcodec.obj
 0001:0005ac45       ??0CD3DXCodec_X1R5G5B5@@QAE@PAUD3DX_BLT@@@Z 1005bc45 f i d3dx8:cd3dxcodec.obj
 0001:0005ac61       ??_GCD3DXCodec_X1R5G5B5@@UAEPAXI@Z 1005bc61 f i d3dx8:cd3dxcodec.obj
 0001:0005ac61       ??_ECD3DXCodec_X1R5G5B5@@UAEPAXI@Z 1005bc61 f i d3dx8:cd3dxcodec.obj
 0001:0005ac7d       ??1CD3DXCodec_X1R5G5B5@@UAE@XZ 1005bc7d f i d3dx8:cd3dxcodec.obj
 0001:0005ac82       ??0CD3DXCodec_A1R5G5B5@@QAE@PAUD3DX_BLT@@@Z 1005bc82 f i d3dx8:cd3dxcodec.obj
 0001:0005ac9e       ??_GCD3DXCodec_A1R5G5B5@@UAEPAXI@Z 1005bc9e f i d3dx8:cd3dxcodec.obj
 0001:0005ac9e       ??_ECD3DXCodec_A1R5G5B5@@UAEPAXI@Z 1005bc9e f i d3dx8:cd3dxcodec.obj
 0001:0005acba       ??1CD3DXCodec_A1R5G5B5@@UAE@XZ 1005bcba f i d3dx8:cd3dxcodec.obj
 0001:0005acbf       ??0CD3DXCodec_A4R4G4B4@@QAE@PAUD3DX_BLT@@@Z 1005bcbf f i d3dx8:cd3dxcodec.obj
 0001:0005acdb       ??_ECD3DXCodec_A4R4G4B4@@UAEPAXI@Z 1005bcdb f i d3dx8:cd3dxcodec.obj
 0001:0005acdb       ??_GCD3DXCodec_A4R4G4B4@@UAEPAXI@Z 1005bcdb f i d3dx8:cd3dxcodec.obj
 0001:0005acf7       ??1CD3DXCodec_A4R4G4B4@@UAE@XZ 1005bcf7 f i d3dx8:cd3dxcodec.obj
 0001:0005acfc       ??0CD3DXCodec_R3G3B2@@QAE@PAUD3DX_BLT@@@Z 1005bcfc f i d3dx8:cd3dxcodec.obj
 0001:0005ad18       ??_GCD3DXCodec_R3G3B2@@UAEPAXI@Z 1005bd18 f i d3dx8:cd3dxcodec.obj
 0001:0005ad18       ??_ECD3DXCodec_R3G3B2@@UAEPAXI@Z 1005bd18 f i d3dx8:cd3dxcodec.obj
 0001:0005ad34       ??1CD3DXCodec_R3G3B2@@UAE@XZ 1005bd34 f i d3dx8:cd3dxcodec.obj
 0001:0005ad39       ??0CD3DXCodec_A8@@QAE@PAUD3DX_BLT@@@Z 1005bd39 f i d3dx8:cd3dxcodec.obj
 0001:0005ad55       ??_GCD3DXCodec_A8@@UAEPAXI@Z 1005bd55 f i d3dx8:cd3dxcodec.obj
 0001:0005ad55       ??_ECD3DXCodec_A8@@UAEPAXI@Z 1005bd55 f i d3dx8:cd3dxcodec.obj
 0001:0005ad71       ??1CD3DXCodec_A8@@UAE@XZ   1005bd71 f i d3dx8:cd3dxcodec.obj
 0001:0005ad76       ??0CD3DXCodec_A8R3G3B2@@QAE@PAUD3DX_BLT@@@Z 1005bd76 f i d3dx8:cd3dxcodec.obj
 0001:0005ad92       ??_GCD3DXCodec_A8R3G3B2@@UAEPAXI@Z 1005bd92 f i d3dx8:cd3dxcodec.obj
 0001:0005ad92       ??_ECD3DXCodec_A8R3G3B2@@UAEPAXI@Z 1005bd92 f i d3dx8:cd3dxcodec.obj
 0001:0005adae       ??1CD3DXCodec_A8R3G3B2@@UAE@XZ 1005bdae f i d3dx8:cd3dxcodec.obj
 0001:0005adb3       ??0CD3DXCodec_X4R4G4B4@@QAE@PAUD3DX_BLT@@@Z 1005bdb3 f i d3dx8:cd3dxcodec.obj
 0001:0005adcf       ??_GCD3DXCodec_X4R4G4B4@@UAEPAXI@Z 1005bdcf f i d3dx8:cd3dxcodec.obj
 0001:0005adcf       ??_ECD3DXCodec_X4R4G4B4@@UAEPAXI@Z 1005bdcf f i d3dx8:cd3dxcodec.obj
 0001:0005adeb       ??1CD3DXCodec_X4R4G4B4@@UAE@XZ 1005bdeb f i d3dx8:cd3dxcodec.obj
 0001:0005adf0       ??0CD3DXCodec_A8P8@@QAE@PAUD3DX_BLT@@@Z 1005bdf0 f i d3dx8:cd3dxcodec.obj
 0001:0005ae0c       ??_ECD3DXCodec_A8P8@@UAEPAXI@Z 1005be0c f i d3dx8:cd3dxcodec.obj
 0001:0005ae0c       ??_GCD3DXCodec_A8P8@@UAEPAXI@Z 1005be0c f i d3dx8:cd3dxcodec.obj
 0001:0005ae28       ??1CD3DXCodec_A8P8@@UAE@XZ 1005be28 f i d3dx8:cd3dxcodec.obj
 0001:0005ae2d       ??0CD3DXCodec_P8@@QAE@PAUD3DX_BLT@@@Z 1005be2d f i d3dx8:cd3dxcodec.obj
 0001:0005ae49       ??_GCD3DXCodec_P8@@UAEPAXI@Z 1005be49 f i d3dx8:cd3dxcodec.obj
 0001:0005ae49       ??_ECD3DXCodec_P8@@UAEPAXI@Z 1005be49 f i d3dx8:cd3dxcodec.obj
 0001:0005ae65       ??1CD3DXCodec_P8@@UAE@XZ   1005be65 f i d3dx8:cd3dxcodec.obj
 0001:0005ae6a       ??0CD3DXCodec_L8@@QAE@PAUD3DX_BLT@@@Z 1005be6a f i d3dx8:cd3dxcodec.obj
 0001:0005ae86       ??_ECD3DXCodec_L8@@UAEPAXI@Z 1005be86 f i d3dx8:cd3dxcodec.obj
 0001:0005ae86       ??_GCD3DXCodec_L8@@UAEPAXI@Z 1005be86 f i d3dx8:cd3dxcodec.obj
 0001:0005aea2       ??1CD3DXCodec_L8@@UAE@XZ   1005bea2 f i d3dx8:cd3dxcodec.obj
 0001:0005aea7       ??0CD3DXCodec_A8L8@@QAE@PAUD3DX_BLT@@@Z 1005bea7 f i d3dx8:cd3dxcodec.obj
 0001:0005aec3       ??_GCD3DXCodec_A8L8@@UAEPAXI@Z 1005bec3 f i d3dx8:cd3dxcodec.obj
 0001:0005aec3       ??_ECD3DXCodec_A8L8@@UAEPAXI@Z 1005bec3 f i d3dx8:cd3dxcodec.obj
 0001:0005aedf       ??1CD3DXCodec_A8L8@@UAE@XZ 1005bedf f i d3dx8:cd3dxcodec.obj
 0001:0005aee4       ??0CD3DXCodec_A4L4@@QAE@PAUD3DX_BLT@@@Z 1005bee4 f i d3dx8:cd3dxcodec.obj
 0001:0005af00       ??_GCD3DXCodec_A4L4@@UAEPAXI@Z 1005bf00 f i d3dx8:cd3dxcodec.obj
 0001:0005af00       ??_ECD3DXCodec_A4L4@@UAEPAXI@Z 1005bf00 f i d3dx8:cd3dxcodec.obj
 0001:0005af1c       ??1CD3DXCodec_A4L4@@UAE@XZ 1005bf1c f i d3dx8:cd3dxcodec.obj
 0001:0005af21       ??0CD3DXCodec_V8U8@@QAE@PAUD3DX_BLT@@@Z 1005bf21 f i d3dx8:cd3dxcodec.obj
 0001:0005af3d       ??_GCD3DXCodec_V8U8@@UAEPAXI@Z 1005bf3d f i d3dx8:cd3dxcodec.obj
 0001:0005af3d       ??_ECD3DXCodec_V8U8@@UAEPAXI@Z 1005bf3d f i d3dx8:cd3dxcodec.obj
 0001:0005af59       ??1CD3DXCodec_V8U8@@UAE@XZ 1005bf59 f i d3dx8:cd3dxcodec.obj
 0001:0005af5e       ??0CD3DXCodec_L6V5U5@@QAE@PAUD3DX_BLT@@@Z 1005bf5e f i d3dx8:cd3dxcodec.obj
 0001:0005af7a       ??_ECD3DXCodec_L6V5U5@@UAEPAXI@Z 1005bf7a f i d3dx8:cd3dxcodec.obj
 0001:0005af7a       ??_GCD3DXCodec_L6V5U5@@UAEPAXI@Z 1005bf7a f i d3dx8:cd3dxcodec.obj
 0001:0005af96       ??1CD3DXCodec_L6V5U5@@UAE@XZ 1005bf96 f i d3dx8:cd3dxcodec.obj
 0001:0005af9b       ??0CD3DXCodec_X8L8V8U8@@QAE@PAUD3DX_BLT@@@Z 1005bf9b f i d3dx8:cd3dxcodec.obj
 0001:0005afb7       ??_ECD3DXCodec_X8L8V8U8@@UAEPAXI@Z 1005bfb7 f i d3dx8:cd3dxcodec.obj
 0001:0005afb7       ??_GCD3DXCodec_X8L8V8U8@@UAEPAXI@Z 1005bfb7 f i d3dx8:cd3dxcodec.obj
 0001:0005afd3       ??1CD3DXCodec_X8L8V8U8@@UAE@XZ 1005bfd3 f i d3dx8:cd3dxcodec.obj
 0001:0005afd8       ??0CD3DXCodec_Q8W8V8U8@@QAE@PAUD3DX_BLT@@@Z 1005bfd8 f i d3dx8:cd3dxcodec.obj
 0001:0005aff4       ??_ECD3DXCodec_Q8W8V8U8@@UAEPAXI@Z 1005bff4 f i d3dx8:cd3dxcodec.obj
 0001:0005aff4       ??_GCD3DXCodec_Q8W8V8U8@@UAEPAXI@Z 1005bff4 f i d3dx8:cd3dxcodec.obj
 0001:0005b010       ??1CD3DXCodec_Q8W8V8U8@@UAE@XZ 1005c010 f i d3dx8:cd3dxcodec.obj
 0001:0005b015       ??0CD3DXCodec_V16U16@@QAE@PAUD3DX_BLT@@@Z 1005c015 f i d3dx8:cd3dxcodec.obj
 0001:0005b031       ??_GCD3DXCodec_V16U16@@UAEPAXI@Z 1005c031 f i d3dx8:cd3dxcodec.obj
 0001:0005b031       ??_ECD3DXCodec_V16U16@@UAEPAXI@Z 1005c031 f i d3dx8:cd3dxcodec.obj
 0001:0005b04d       ??1CD3DXCodec_V16U16@@UAE@XZ 1005c04d f i d3dx8:cd3dxcodec.obj
 0001:0005b052       ??0CD3DXCodec_W11V11U10@@QAE@PAUD3DX_BLT@@@Z 1005c052 f i d3dx8:cd3dxcodec.obj
 0001:0005b06e       ??_GCD3DXCodec_W11V11U10@@UAEPAXI@Z 1005c06e f i d3dx8:cd3dxcodec.obj
 0001:0005b06e       ??_ECD3DXCodec_W11V11U10@@UAEPAXI@Z 1005c06e f i d3dx8:cd3dxcodec.obj
 0001:0005b08a       ??1CD3DXCodec_W11V11U10@@UAE@XZ 1005c08a f i d3dx8:cd3dxcodec.obj
 0001:0005b08f       ??1CD3DXCodecYUV@@UAE@XZ   1005c08f f   d3dx8:cd3dxcodec.obj
 0001:0005b0d4       ??1CD3DXCodecDXT@@UAE@XZ   1005c0d4 f   d3dx8:cd3dxcodec.obj
 0001:0005b128       ??0CD3DXCodec_UYVY@@QAE@PAUD3DX_BLT@@@Z 1005c128 f i d3dx8:cd3dxcodec.obj
 0001:0005b140       ??0CD3DXCodec_YUY2@@QAE@PAUD3DX_BLT@@@Z 1005c140 f i d3dx8:cd3dxcodec.obj
 0001:0005b158       ??0CD3DXCodec_DXT1@@QAE@PAUD3DX_BLT@@@Z 1005c158 f i d3dx8:cd3dxcodec.obj
 0001:0005b170       ??0CD3DXCodec_DXT2@@QAE@PAUD3DX_BLT@@@Z 1005c170 f i d3dx8:cd3dxcodec.obj
 0001:0005b188       ??0CD3DXCodec_DXT3@@QAE@PAUD3DX_BLT@@@Z 1005c188 f i d3dx8:cd3dxcodec.obj
 0001:0005b1a0       ??0CD3DXCodec_DXT4@@QAE@PAUD3DX_BLT@@@Z 1005c1a0 f i d3dx8:cd3dxcodec.obj
 0001:0005b1b8       ??0CD3DXCodec_DXT5@@QAE@PAUD3DX_BLT@@@Z 1005c1b8 f i d3dx8:cd3dxcodec.obj
 0001:0005b1d0       ?Create@CD3DXCodec@@SAPAV1@PAUD3DX_BLT@@@Z 1005c1d0 f   d3dx8:cd3dxcodec.obj
 0001:0005b7e0       ??_ECD3DXCodecYUV@@UAEPAXI@Z 1005c7e0 f i d3dx8:cd3dxcodec.obj
 0001:0005b7e0       ??_GCD3DXCodecYUV@@UAEPAXI@Z 1005c7e0 f i d3dx8:cd3dxcodec.obj
 0001:0005b7fc       ??_GCD3DXCodecDXT@@UAEPAXI@Z 1005c7fc f i d3dx8:cd3dxcodec.obj
 0001:0005b7fc       ??_ECD3DXCodecDXT@@UAEPAXI@Z 1005c7fc f i d3dx8:cd3dxcodec.obj
 0001:0005b818       ??_ECD3DXCodec_UYVY@@UAEPAXI@Z 1005c818 f i d3dx8:cd3dxcodec.obj
 0001:0005b818       ??_GCD3DXCodec_UYVY@@UAEPAXI@Z 1005c818 f i d3dx8:cd3dxcodec.obj
 0001:0005b834       ??1CD3DXCodec_UYVY@@UAE@XZ 1005c834 f i d3dx8:cd3dxcodec.obj
 0001:0005b839       ??_GCD3DXCodec_YUY2@@UAEPAXI@Z 1005c839 f i d3dx8:cd3dxcodec.obj
 0001:0005b839       ??_ECD3DXCodec_YUY2@@UAEPAXI@Z 1005c839 f i d3dx8:cd3dxcodec.obj
 0001:0005b855       ??1CD3DXCodec_YUY2@@UAE@XZ 1005c855 f i d3dx8:cd3dxcodec.obj
 0001:0005b85a       ??_ECD3DXCodec_DXT1@@UAEPAXI@Z 1005c85a f i d3dx8:cd3dxcodec.obj
 0001:0005b85a       ??_GCD3DXCodec_DXT1@@UAEPAXI@Z 1005c85a f i d3dx8:cd3dxcodec.obj
 0001:0005b876       ??1CD3DXCodec_DXT1@@UAE@XZ 1005c876 f i d3dx8:cd3dxcodec.obj
 0001:0005b87b       ??_ECD3DXCodec_DXT2@@UAEPAXI@Z 1005c87b f i d3dx8:cd3dxcodec.obj
 0001:0005b87b       ??_GCD3DXCodec_DXT2@@UAEPAXI@Z 1005c87b f i d3dx8:cd3dxcodec.obj
 0001:0005b897       ??1CD3DXCodec_DXT2@@UAE@XZ 1005c897 f i d3dx8:cd3dxcodec.obj
 0001:0005b89c       ??_GCD3DXCodec_DXT3@@UAEPAXI@Z 1005c89c f i d3dx8:cd3dxcodec.obj
 0001:0005b89c       ??_ECD3DXCodec_DXT3@@UAEPAXI@Z 1005c89c f i d3dx8:cd3dxcodec.obj
 0001:0005b8b8       ??1CD3DXCodec_DXT3@@UAE@XZ 1005c8b8 f i d3dx8:cd3dxcodec.obj
 0001:0005b8bd       ??_ECD3DXCodec_DXT4@@UAEPAXI@Z 1005c8bd f i d3dx8:cd3dxcodec.obj
 0001:0005b8bd       ??_GCD3DXCodec_DXT4@@UAEPAXI@Z 1005c8bd f i d3dx8:cd3dxcodec.obj
 0001:0005b8d9       ??1CD3DXCodec_DXT4@@UAE@XZ 1005c8d9 f i d3dx8:cd3dxcodec.obj
 0001:0005b8de       ??_GCD3DXCodec_DXT5@@UAEPAXI@Z 1005c8de f i d3dx8:cd3dxcodec.obj
 0001:0005b8de       ??_ECD3DXCodec_DXT5@@UAEPAXI@Z 1005c8de f i d3dx8:cd3dxcodec.obj
 0001:0005b8fa       ??1CD3DXCodec_DXT5@@UAE@XZ 1005c8fa f i d3dx8:cd3dxcodec.obj
 0001:0005b8ff       _jpeg_CreateDecompress     1005c8ff f   d3dx8:jdapimin.obj
 0001:0005b9bf       _jpeg_destroy_decompress   1005c9bf f   d3dx8:jdapimin.obj
 0001:0005b9c4       _jpeg_abort_decompress     1005c9c4 f   d3dx8:jdapimin.obj
 0001:0005b9c9       _jpeg_set_marker_processor 1005c9c9 f   d3dx8:jdapimin.obj
 0001:0005bba5       _jpeg_consume_input        1005cba5 f   d3dx8:jdapimin.obj
 0001:0005bc3f       _jpeg_input_complete       1005cc3f f   d3dx8:jdapimin.obj
 0001:0005bc77       _jpeg_has_multiple_scans   1005cc77 f   d3dx8:jdapimin.obj
 0001:0005bcaf       _jpeg_finish_decompress    1005ccaf f   d3dx8:jdapimin.obj
 0001:0005bd50       _jpeg_read_header          1005cd50 f   d3dx8:jdapimin.obj
 0001:0005be57       _jpeg_read_scanlines       1005ce57 f   d3dx8:jdapistd.obj
 0001:0005bedb       _jpeg_read_raw_data        1005cedb f   d3dx8:jdapistd.obj
 0001:0005bf7a       _jpeg_start_output         1005cf7a f   d3dx8:jdapistd.obj
 0001:0005bfd4       _jpeg_finish_output        1005cfd4 f   d3dx8:jdapistd.obj
 0001:0005c051       _jpeg_start_decompress     1005d051 f   d3dx8:jdapistd.obj
 0001:0005d6cb       _jpeg_resync_to_restart    1005e6cb f   d3dx8:jdmarker.obj
 0001:0005d7e4       ?jinit_marker_reader@D3DX@@YAXPAUjpeg_decompress_struct@1@@Z 1005e7e4 f   d3dx8:jdmarker.obj
 0001:0005d972       _jpeg_std_error            1005e972 f   d3dx8:jerror.obj
 0001:0005da51       _png_set_error_fn          1005ea51 f   d3dx8:pngerror.obj
 0001:0005da6b       _png_get_error_ptr         1005ea6b f   d3dx8:pngerror.obj
 0001:0005da73       _png_error                 1005ea73 f   d3dx8:pngerror.obj
 0001:0005da96       _png_warning               1005ea96 f   d3dx8:pngerror.obj
 0001:0005daab       _png_chunk_error           1005eaab f   d3dx8:pngerror.obj
 0001:0005dad0       _png_chunk_warning         1005ead0 f   d3dx8:pngerror.obj
 0001:0005daf5       _png_create_read_struct    1005eaf5 f   d3dx8:pngread.obj
 0001:0005dbf8       _png_read_init             1005ebf8 f   d3dx8:pngread.obj
 0001:0005dcb8       _png_read_info             1005ecb8 f   d3dx8:pngread.obj
 0001:0005de2c       _png_read_update_info      1005ee2c f   d3dx8:pngread.obj
 0001:0005de4c       _png_start_read_image      1005ee4c f   d3dx8:pngread.obj
 0001:0005de5e       _png_read_row              1005ee5e f   d3dx8:pngread.obj
 0001:0005e206       _png_read_rows             1005f206 f   d3dx8:pngread.obj
 0001:0005e280       _png_read_image            1005f280 f   d3dx8:pngread.obj
 0001:0005e2cd       _png_read_end              1005f2cd f   d3dx8:pngread.obj
 0001:0005e3cd       _png_read_destroy          1005f3cd f   d3dx8:pngread.obj
 0001:0005e4f0       _png_set_read_status_fn    1005f4f0 f   d3dx8:pngread.obj
 0001:0005e4ff       _png_destroy_read_struct   1005f4ff f   d3dx8:pngread.obj
 0001:0005e580       _png_get_valid             1005f580 f   d3dx8:pngget.obj
 0001:0005e59a       _png_get_rowbytes          1005f59a f   d3dx8:pngget.obj
 0001:0005e5b0       _png_get_channels          1005f5b0 f   d3dx8:pngget.obj
 0001:0005e5c6       _png_get_signature         1005f5c6 f   d3dx8:pngget.obj
 0001:0005e5dc       _png_get_gAMA              1005f5dc f   d3dx8:pngget.obj
 0001:0005e605       _png_get_sRGB              1005f605 f   d3dx8:pngget.obj
 0001:0005e630       _png_get_IHDR              1005f630 f   d3dx8:pngget.obj
 0001:0005e701       _png_get_PLTE              1005f701 f   d3dx8:pngget.obj
 0001:0005e734       _png_get_tRNS              1005f734 f   d3dx8:pngget.obj
 0001:0005e79b       _png_set_bgr               1005f79b f   d3dx8:pngtrans.obj
 0001:0005e7a4       _png_set_packing           1005f7a4 f   d3dx8:pngtrans.obj
 0001:0005e7bd       _png_set_shift             1005f7bd f   d3dx8:pngtrans.obj
 0001:0005e7d6       _png_set_interlace_handling 1005f7d6 f   d3dx8:pngtrans.obj
 0001:0005e7ef       _png_set_filler            1005f7ef f   d3dx8:pngtrans.obj
 0001:0005e83c       _png_do_bgr                1005f83c f   d3dx8:pngtrans.obj
 0001:0005e8fb       _png_set_crc_action        1005f8fb f   d3dx8:pngrtran.obj
 0001:0005e97a       _png_set_strip_16          1005f97a f   d3dx8:pngrtran.obj
 0001:0005e983       _png_set_dither            1005f983 f   d3dx8:pngrtran.obj
 0001:0005efd6       _png_set_gamma             1005ffd6 f   d3dx8:pngrtran.obj
 0001:0005f00c       _png_set_expand            1006000c f   d3dx8:pngrtran.obj
 0001:0005f015       _png_set_palette_to_rgb    10060015 f   d3dx8:pngrtran.obj
 0001:0005f01e       _png_set_gray_1_2_4_to_8   1006001e f   d3dx8:pngrtran.obj
 0001:0005f027       _png_set_tRNS_to_alpha     10060027 f   d3dx8:pngrtran.obj
 0001:0005f030       _png_read_transform_info   10060030 f   d3dx8:pngrtran.obj
 0001:0005f11b       _png_do_unpack             1006011b f   d3dx8:pngrtran.obj
 0001:0005f22a       _png_do_unshift            1006022a f   d3dx8:pngrtran.obj
 0001:0005f3a5       _png_do_chop               100603a5 f   d3dx8:pngrtran.obj
 0001:0005f3e9       _png_do_read_filler        100603e9 f   d3dx8:pngrtran.obj
 0001:0005f620       _png_build_grayscale_palette 10060620 f   d3dx8:pngrtran.obj
 0001:0005f680       _png_do_gamma              10060680 f   d3dx8:pngrtran.obj
 0001:0005f9f2       _png_do_expand_palette     100609f2 f   d3dx8:pngrtran.obj
 0001:0005fbf9       _png_do_expand             10060bf9 f   d3dx8:pngrtran.obj
 0001:0005ff4c       _png_do_dither             10060f4c f   d3dx8:pngrtran.obj
 0001:00060059       _png_build_gamma_table     10061059 f   d3dx8:pngrtran.obj
 0001:00060358       _png_init_read_transformations 10061358 f   d3dx8:pngrtran.obj
 0001:0006046d       _png_do_read_transformations 1006146d f   d3dx8:pngrtran.obj
 0001:00060609       _png_set_gAMA              10061609 f   d3dx8:pngset.obj
 0001:00060624       _png_set_IHDR              10061624 f   d3dx8:pngset.obj
 0001:000606c6       _png_set_PLTE              100616c6 f   d3dx8:pngset.obj
 0001:000606ea       _png_set_sRGB              100616ea f   d3dx8:pngset.obj
 0001:00060705       _png_set_sRGB_gAMA_and_cHRM 10061705 f   d3dx8:pngset.obj
 0001:0006073e       _png_set_tRNS              1006173e f   d3dx8:pngset.obj
 0001:00060785       _png_permit_empty_plte     10061785 f   d3dx8:pngset.obj
 0001:00060798       _png_read_data             10061798 f   d3dx8:pngrio.obj
 0001:000607c0       _png_set_read_fn           100617c0 f   d3dx8:pngrio.obj
 0001:000607ff       _png_get_header_version    100617ff f   d3dx8:png.obj
 0001:00060805       _png_set_sig_bytes         10061805 f   d3dx8:png.obj
 0001:00060832       _png_sig_cmp               10061832 f   d3dx8:png.obj
 0001:0006087a       _png_check_sig             1006187a f   d3dx8:png.obj
 0001:00060892       _png_zalloc                10061892 f   d3dx8:png.obj
 0001:000608e5       _png_zfree                 100618e5 f   d3dx8:png.obj
 0001:000608ea       _png_reset_crc             100618ea f   d3dx8:png.obj
 0001:00060902       _png_calculate_crc         10061902 f   d3dx8:png.obj
 0001:00060941       _png_info_init             10061941 f   d3dx8:png.obj
 0001:0006094f       _png_info_destroy          1006194f f   d3dx8:png.obj
 0001:0006095a       _png_get_io_ptr            1006195a f   d3dx8:png.obj
 0001:00060962       _png_get_copyright         10061962 f   d3dx8:png.obj
 0001:00060968       ?png_check_version@D3DX@@YAXPAUpng_struct_def@1@@Z 10061968 f   d3dx8:png.obj
 0001:00060969       _png_create_info_struct    10061969 f   d3dx8:png.obj
 0001:0006098b       _png_destroy_info_struct   1006198b f   d3dx8:png.obj
 0001:000609b2       ?XXEncodeBlockRGB@@YAXQAUS3TC_COLOR@@PAUS3TCBlockRGB@@@Z 100619b2 f   d3dx8:s3tchelp.obj
 0001:00060a1b       ?XXDecodeBlockRGB@@YAXPAUS3TCBlockRGB@@QAUS3TC_COLOR@@@Z 10061a1b f   d3dx8:s3tchelp.obj
 0001:00060de2       ?EncodeBlockRGBColorKey@@YAXQAUS3TC_COLOR@@PAUS3TCBlockRGB@@U1@2@Z 10061de2 f   d3dx8:s3tc.obj
 0001:00061279       ?DecodeBlockRGB@@YAXPAUS3TCBlockRGB@@QAUS3TC_COLOR@@@Z 10062279 f   d3dx8:s3tc.obj
 0001:00061362       ?DecodeBlockAlpha4@@YAXPAUS3TCBlockAlpha4@@QAUS3TC_COLOR@@@Z 10062362 f   d3dx8:s3tc.obj
 0001:000613b0       ?DecodeBlockAlpha3@@YAXPAUS3TCBlockAlpha3@@QAUS3TC_COLOR@@@Z 100623b0 f   d3dx8:s3tc.obj
 0001:000614b0       ?EncodeBlockRGB@@YAXQAUS3TC_COLOR@@PAUS3TCBlockRGB@@@Z 100624b0 f   d3dx8:s3tc.obj
 0001:000614e2       ?EncodeBlockAlpha4@@YAXQAUS3TC_COLOR@@PAUS3TCBlockAlpha4@@@Z 100624e2 f   d3dx8:s3tc.obj
 0001:0006153b       ?EncodeBlockAlpha3@@YAXQAUS3TC_COLOR@@PAUS3TCBlockAlpha3@@@Z 1006253b f   d3dx8:s3tc.obj
 0001:00061691       ?jdiv_round_up@D3DX@@YAJJJ@Z 10062691 f   d3dx8:jutils.obj
 0001:000616a1       ?jround_up@D3DX@@YAJJJ@Z   100626a1 f   d3dx8:jutils.obj
 0001:000616b9       ?jcopy_sample_rows@D3DX@@YAXPAPAEH0HHI@Z 100626b9 f   d3dx8:jutils.obj
 0001:00061700       ?jcopy_block_row@D3DX@@YAXPAY0EA@F0I@Z 10062700 f   d3dx8:jutils.obj
 0001:00061722       ?jzero_far@D3DX@@YAXPAXI@Z 10062722 f   d3dx8:jutils.obj
 0001:0006173d       ?IsMMX@D3DX@@YAHXZ         1006273d f   d3dx8:jutils.obj
 0001:00061c46       ?jinit_input_controller@D3DX@@YAXPAUjpeg_decompress_struct@1@@Z 10062c46 f   d3dx8:jdinput.obj
 0001:000625fc       ?jinit_memory_mgr@D3DX@@YAXPAUjpeg_common_struct@1@@Z 100635fc f   d3dx8:jmemmgr.obj
 0001:000626b0       _jpeg_abort                100636b0 f   d3dx8:jcomapi.obj
 0001:000626d2       _jpeg_destroy              100636d2 f   d3dx8:jcomapi.obj
 0001:000626ed       _jpeg_alloc_quant_table    100636ed f   d3dx8:jcomapi.obj
 0001:00062709       _jpeg_alloc_huff_table     10063709 f   d3dx8:jcomapi.obj
 0001:00062796       _jpeg_calc_output_dimensions 10063796 f   d3dx8:jdmaster.obj
 0001:00062cef       _jpeg_new_colormap         10063cef f   d3dx8:jdmaster.obj
 0001:00062d52       ?jinit_master_decompress@D3DX@@YAXPAUjpeg_decompress_struct@1@@Z 10063d52 f   d3dx8:jdmaster.obj
 0001:00062d82       _inflateReset              10063d82 f   d3dx8:inflate.obj
 0001:00062dc1       _inflateEnd                10063dc1 f   d3dx8:inflate.obj
 0001:00062dff       _inflateInit2_             10063dff f   d3dx8:inflate.obj
 0001:00062ee4       _inflateInit_              10063ee4 f   d3dx8:inflate.obj
 0001:00062efb       _inflate                   10063efb f   d3dx8:inflate.obj
 0001:0006325c       _inflateSetDictionary      1006425c f   d3dx8:inflate.obj
 0001:000632d5       _inflateSync               100642d5 f   d3dx8:inflate.obj
 0001:00063383       _inflateSyncPoint          10064383 f   d3dx8:inflate.obj
 0001:000633a5       _png_create_struct         100643a5 f   d3dx8:pngmem.obj
 0001:000633e7       _png_destroy_struct        100643e7 f   d3dx8:pngmem.obj
 0001:000633f4       _png_malloc                100643f4 f   d3dx8:pngmem.obj
 0001:0006342a       _png_free                  1006442a f   d3dx8:pngmem.obj
 0001:00063443       _png_memcpy_check          10064443 f   d3dx8:pngmem.obj
 0001:00063466       _png_memset_check          10064466 f   d3dx8:pngmem.obj
 0001:00063499       _png_get_uint_32           10064499 f   d3dx8:pngrutil.obj
 0001:000634bc       _png_get_uint_16           100644bc f   d3dx8:pngrutil.obj
 0001:000634cf       _png_crc_read              100644cf f   d3dx8:pngrutil.obj
 0001:000634f3       _png_crc_error             100644f3 f   d3dx8:pngrutil.obj
 0001:00063551       _png_check_chunk_name      10064551 f   d3dx8:pngrutil.obj
 0001:000635b3       _png_combine_row           100645b3 f   d3dx8:pngrutil.obj
 0001:000637c7       _png_do_read_interlace     100647c7 f   d3dx8:pngrutil.obj
 0001:00063a90       _png_read_filter_row       10064a90 f   d3dx8:pngrutil.obj
 0001:00063c09       _png_read_start_row        10064c09 f   d3dx8:pngrutil.obj
 0001:00063da5       _png_crc_finish            10064da5 f   d3dx8:pngrutil.obj
 0001:00063e31       _png_handle_IHDR           10064e31 f   d3dx8:pngrutil.obj
 0001:00064028       _png_handle_PLTE           10065028 f   d3dx8:pngrutil.obj
 0001:00064151       _png_handle_IEND           10065151 f   d3dx8:pngrutil.obj
 0001:0006419b       _png_handle_gAMA           1006519b f   d3dx8:pngrutil.obj
 0001:0006429b       _png_handle_sRGB           1006529b f   d3dx8:pngrutil.obj
 0001:0006438a       _png_handle_tRNS           1006538a f   d3dx8:pngrutil.obj
 0001:00064523       _png_handle_unknown        10065523 f   d3dx8:pngrutil.obj
 0001:0006456d       _png_read_finish_row       1006556d f   d3dx8:pngrutil.obj
 0001:00064792       _get_crc_table             10065792 f   d3dx8:crc32.obj
 0001:00064798       _crc32                     10065798 f   d3dx8:crc32.obj
 0001:000648a1       ?jpeg_get_small@D3DX@@YAPAXPAUjpeg_common_struct@1@I@Z 100658a1 f   d3dx8:jmemnobs.obj
 0001:000648ac       ?jpeg_free_small@D3DX@@YAXPAUjpeg_common_struct@1@PAXI@Z 100658ac f   d3dx8:jmemnobs.obj
 0001:000648b7       ?jpeg_get_large@D3DX@@YAPAXPAUjpeg_common_struct@1@I@Z 100658b7 f   d3dx8:jmemnobs.obj
 0001:000648c2       ?jpeg_free_large@D3DX@@YAXPAUjpeg_common_struct@1@PAXI@Z 100658c2 f   d3dx8:jmemnobs.obj
 0001:000648cd       ?jpeg_mem_available@D3DX@@YAJPAUjpeg_common_struct@1@JJJ@Z 100658cd f   d3dx8:jmemnobs.obj
 0001:000648d2       ?jpeg_open_backing_store@D3DX@@YAXPAUjpeg_common_struct@1@PAUbacking_store_struct@1@J@Z 100658d2 f   d3dx8:jmemnobs.obj
 0001:000648e6       ?jpeg_mem_init@D3DX@@YAJPAUjpeg_common_struct@1@@Z 100658e6 f   d3dx8:jmemnobs.obj
 0001:000648e9       ?jpeg_mem_term@D3DX@@YAXPAUjpeg_common_struct@1@@Z 100658e9 f   d3dx8:jmemnobs.obj
 0001:00064e28       ?jinit_d_main_controller@D3DX@@YAXPAUjpeg_decompress_struct@1@E@Z 10065e28 f   d3dx8:jdmainct.obj
 0001:00065a62       ?jinit_d_coef_controller@D3DX@@YAXPAUjpeg_decompress_struct@1@E@Z 10066a62 f   d3dx8:jdcoefct.obj
 0001:00065b5a       ?jpeg_make_d_derived_tbl@D3DX@@YAXPAUjpeg_decompress_struct@1@PAUJHUFF_TBL@1@PAPAUd_derived_tbl@1@@Z 10066b5a f   d3dx8:jdhuff.obj
 0001:00065cfd       ?jpeg_fill_bit_buffer@D3DX@@YAEPAUbitread_working_state@1@JHH@Z 10066cfd f   d3dx8:jdhuff.obj
 0001:00065de7       ?jpeg_huff_decode@D3DX@@YAHPAUbitread_working_state@1@JHPAUd_derived_tbl@1@H@Z 10066de7 f   d3dx8:jdhuff.obj
 0001:00066427       ?jinit_huff_decoder@D3DX@@YAXPAUjpeg_decompress_struct@1@@Z 10067427 f   d3dx8:jdhuff.obj
 0001:00066fd9       ?jinit_phuff_decoder@D3DX@@YAXPAUjpeg_decompress_struct@1@@Z 10067fd9 f   d3dx8:jdphuff.obj
 0001:000671f1       ?jinit_inverse_dct@D3DX@@YAXPAUjpeg_decompress_struct@1@@Z 100681f1 f   d3dx8:jddctmgr.obj
 0001:0006748c       ?jinit_d_post_controller@D3DX@@YAXPAUjpeg_decompress_struct@1@E@Z 1006848c f   d3dx8:jdpostct.obj
 0001:0006794c       ?jinit_upsampler@D3DX@@YAXPAUjpeg_decompress_struct@1@@Z 1006894c f   d3dx8:jdsample.obj
 0001:00067d7d       ?MYCbCr2RGB@D3DX@@YAXHPAE000@Z 10068d7d f   d3dx8:jdcolor.obj
 0001:00067eba       ?MYCbCrA2RGBA@D3DX@@YAXHPAE0000@Z 10068eba f   d3dx8:jdcolor.obj
 0001:00067fee       ?MYCbCrA2RGBALegacy@D3DX@@YAXHPAE0000@Z 10068fee f   d3dx8:jdcolor.obj
 0001:0006834e       ?jinit_color_deconverter@D3DX@@YAXPAUjpeg_decompress_struct@1@@Z 1006934e f   d3dx8:jdcolor.obj
 0001:00068947       ?jinit_merged_upsampler@D3DX@@YAXPAUjpeg_decompress_struct@1@@Z 10069947 f   d3dx8:jdmerge.obj
 0001:000698d0       ?jinit_2pass_quantizer@D3DX@@YAXPAUjpeg_decompress_struct@1@@Z 1006a8d0 f   d3dx8:jquant2.obj
 0001:0006a369       ?jinit_1pass_quantizer@D3DX@@YAXPAUjpeg_decompress_struct@1@@Z 1006b369 f   d3dx8:jquant1.obj
 0001:0006a3f2       ?inflate_blocks_reset@D3DX@@YAXPAUinflate_blocks_state@1@PAUz_stream_s@1@PAK@Z 1006b3f2 f   d3dx8:infblock.obj
 0001:0006a45d       ?inflate_blocks_new@D3DX@@YAPAUinflate_blocks_state@1@PAUz_stream_s@1@P6AKKPBEI@ZI@Z 1006b45d f   d3dx8:infblock.obj
 0001:0006a4e8       ?inflate_blocks@D3DX@@YAHPAUinflate_blocks_state@1@PAUz_stream_s@1@H@Z 1006b4e8 f   d3dx8:infblock.obj
 0001:0006ae01       ?inflate_blocks_free@D3DX@@YAHPAUinflate_blocks_state@1@PAUz_stream_s@1@@Z 1006be01 f   d3dx8:infblock.obj
 0001:0006ae35       ?inflate_set_dictionary@D3DX@@YAXPAUinflate_blocks_state@1@PBEI@Z 1006be35 f   d3dx8:infblock.obj
 0001:0006ae66       ?inflate_blocks_sync_point@D3DX@@YAHPAUinflate_blocks_state@1@@Z 1006be66 f   d3dx8:infblock.obj
 0001:0006ae73       _adler32                   1006be73 f   d3dx8:adler32.obj
 0001:0006af8c       _zlibVersion               1006bf8c f   d3dx8:zutil.obj
 0001:0006af92       _zError                    1006bf92 f   d3dx8:zutil.obj
 0001:0006afa3       ?zcalloc@D3DX@@YAPAXPAXII@Z 1006bfa3 f   d3dx8:zutil.obj
 0001:0006afb3       ?zcfree@D3DX@@YAXPAX0@Z    1006bfb3 f   d3dx8:zutil.obj
 0001:0006afbe       ?jpeg_idct_4x4@D3DX@@YAXPAUjpeg_decompress_struct@1@PAUjpeg_component_info@1@PAFPAPAEI@Z 1006bfbe f   d3dx8:jidctred.obj
 0001:0006b2d3       ?jpeg_idct_2x2@D3DX@@YAXPAUjpeg_decompress_struct@1@PAUjpeg_component_info@1@PAFPAPAEI@Z 1006c2d3 f   d3dx8:jidctred.obj
 0001:0006b491       ?jpeg_idct_1x1@D3DX@@YAXPAUjpeg_decompress_struct@1@PAUjpeg_component_info@1@PAFPAPAEI@Z 1006c491 f   d3dx8:jidctred.obj
 0001:0006b4ce       ?jpeg_idct_islow@D3DX@@YAXPAUjpeg_decompress_struct@1@PAUjpeg_component_info@1@PAFPAPAEI@Z 1006c4ce f   d3dx8:jidctint.obj
 0001:0006b51a       ?jpeg_idct_ifast@D3DX@@YAXPAUjpeg_decompress_struct@1@PAUjpeg_component_info@1@PAFPAPAEI@Z 1006c51a f   d3dx8:jidctfst.obj
 0001:0006b566       ?jpeg_idct_float@D3DX@@YAXPAUjpeg_decompress_struct@1@PAUjpeg_component_info@1@PAFPAPAEI@Z 1006c566 f   d3dx8:jidctflt.obj
 0001:0006b947       ?inflate_codes_new@D3DX@@YAPAUinflate_codes_state@1@IIPAUinflate_huft_s@1@0PAUz_stream_s@1@@Z 1006c947 f   d3dx8:infcodes.obj
 0001:0006b97b       ?inflate_codes@D3DX@@YAHPAUinflate_blocks_state@1@PAUz_stream_s@1@H@Z 1006c97b f   d3dx8:infcodes.obj
 0001:0006bed1       ?inflate_codes_free@D3DX@@YAXPAUinflate_codes_state@1@PAUz_stream_s@1@@Z 1006ced1 f   d3dx8:infcodes.obj
 0001:0006c267       ?inflate_trees_bits@D3DX@@YAHPAI0PAPAUinflate_huft_s@1@PAU21@PAUz_stream_s@1@@Z 1006d267 f   d3dx8:inftrees.obj
 0001:0006c2e6       ?inflate_trees_dynamic@D3DX@@YAHIIPAI00PAPAUinflate_huft_s@1@1PAU21@PAUz_stream_s@1@@Z 1006d2e6 f   d3dx8:inftrees.obj
 0001:0006c3e9       ?inflate_trees_fixed@D3DX@@YAHPAI0PAPAUinflate_huft_s@1@1PAUz_stream_s@1@@Z 1006d3e9 f   d3dx8:inftrees.obj
 0001:0006c418       ?inflate_flush@D3DX@@YAHPAUinflate_blocks_state@1@PAUz_stream_s@1@H@Z 1006d418 f   d3dx8:infutil.obj
 0001:0006c52d       ?pidct8x8llm@D3DX@@YAXPAF00PAPAEIPAE@Z 1006d52d f   d3dx8:piint.obj
 0001:0006ca1a       ?midct8x8llm@D3DX@@YAXPAF00PAPAEIPAE@Z 1006da1a f   d3dx8:miint.obj
 0001:0006d1a5       ?pidct8x8aan@D3DX@@YAXPAF00PAPAEIPAE@Z 1006e1a5 f   d3dx8:pifst.obj
 0001:0006d54e       ?midct8x8aan@D3DX@@YAXPAF00PAPAEIPAE@Z 1006e54e f   d3dx8:mifst.obj
 0001:0006e321       ?inflate_fast@D3DX@@YAHIIPAUinflate_huft_s@1@0PAUinflate_blocks_state@1@PAUz_stream_s@1@@Z 1006f321 f   d3dx8:inffast.obj
 0001:0006e5cc       ?_Copy@?$basic_string@DU?$char_traits@D@std@@V?$allocator@D@2@@std@@AAEXI@Z 1006f5cc f   msvcprt:MSVCP60.dll
 0001:0006e5d2       ?_Tidy@?$basic_string@DU?$char_traits@D@std@@V?$allocator@D@2@@std@@AAEX_N@Z 1006f5d2 f   msvcprt:MSVCP60.dll
 0001:0006e5d8       ?_Xlen@std@@YAXXZ          1006f5d8 f   msvcprt:MSVCP60.dll
 0001:0006e5de       ??3@YAXPAX@Z               1006f5de f   msvcprt:delop_s.obj
 0001:0006e5ea       ??0Init@ios_base@std@@QAE@XZ 1006f5ea f   msvcprt:MSVCP60.dll
 0001:0006e5f0       ??1Init@ios_base@std@@QAE@XZ 1006f5f0 f   msvcprt:MSVCP60.dll
 0001:0006e5f6       ??0_Winit@std@@QAE@XZ      1006f5f6 f   msvcprt:MSVCP60.dll
 0001:0006e5fc       ??1_Winit@std@@QAE@XZ      1006f5fc f   msvcprt:MSVCP60.dll
 0001:0006e602       ??1?$basic_string@DU?$char_traits@D@std@@V?$allocator@D@2@@std@@QAE@XZ 1006f602 f   msvcprt:MSVCP60.dll
 0001:0006e608       ?assign@?$basic_string@DU?$char_traits@D@std@@V?$allocator@D@2@@std@@QAEAAV12@PBDI@Z 1006f608 f   msvcprt:MSVCP60.dll
 0001:0006e60e       ?_Eos@?$basic_string@DU?$char_traits@D@std@@V?$allocator@D@2@@std@@AAEXI@Z 1006f60e f   msvcprt:MSVCP60.dll
 0001:0006e614       ?_Grow@?$basic_string@DU?$char_traits@D@std@@V?$allocator@D@2@@std@@AAE_NI_N@Z 1006f614 f   msvcprt:MSVCP60.dll
 0001:0006e61a       ??Mstd@@YA_NABV?$basic_string@DU?$char_traits@D@std@@V?$allocator@D@2@@0@0@Z 1006f61a f   msvcprt:MSVCP60.dll
 0001:0006e620       ??1_Lockit@std@@QAE@XZ     1006f620 f   msvcprt:MSVCP60.dll
 0001:0006e626       ??0_Lockit@std@@QAE@XZ     1006f626 f   msvcprt:MSVCP60.dll
 0001:0006e62c       ?assign@?$basic_string@DU?$char_traits@D@std@@V?$allocator@D@2@@std@@QAEAAV12@ABV12@II@Z 1006f62c f   msvcprt:MSVCP60.dll
 0001:0006e632       ?substr@?$basic_string@DU?$char_traits@D@std@@V?$allocator@D@2@@std@@QBE?AV12@II@Z 1006f632 f   msvcprt:MSVCP60.dll
 0001:0006e638       ??Hstd@@YA?AV?$basic_string@DU?$char_traits@D@std@@V?$allocator@D@2@@0@PBDABV10@@Z 1006f638 f   msvcprt:MSVCP60.dll
 0001:0006e63e       ?_Freeze@?$basic_string@DU?$char_traits@D@std@@V?$allocator@D@2@@std@@AAEXXZ 1006f63e f   msvcprt:MSVCP60.dll
 0001:0006e644       ?append@?$basic_string@DU?$char_traits@D@std@@V?$allocator@D@2@@std@@QAEAAV12@ID@Z 1006f644 f   msvcprt:MSVCP60.dll
 0001:0006e64a       ?erase@?$basic_string@DU?$char_traits@D@std@@V?$allocator@D@2@@std@@QAEAAV12@II@Z 1006f64a f   msvcprt:MSVCP60.dll
 0001:0006e650       ??Hstd@@YA?AV?$basic_string@DU?$char_traits@D@std@@V?$allocator@D@2@@0@ABV10@PBD@Z 1006f650 f   msvcprt:MSVCP60.dll
 0001:0006e656       ??0?$basic_string@DU?$char_traits@D@std@@V?$allocator@D@2@@std@@QAE@ABV01@@Z 1006f656 f   msvcprt:MSVCP60.dll
 0001:0006e65c       ?find_last_of@?$basic_string@DU?$char_traits@D@std@@V?$allocator@D@2@@std@@QBEIPBDII@Z 1006f65c f   msvcprt:MSVCP60.dll
 0001:0006e662       ?_Split@?$basic_string@DU?$char_traits@D@std@@V?$allocator@D@2@@std@@AAEXXZ 1006f662 f   msvcprt:MSVCP60.dll
 0001:0006e668       ?_Xran@std@@YAXXZ          1006f668 f   msvcprt:MSVCP60.dll
 0001:0006e66e       ??0?$basic_string@DU?$char_traits@D@std@@V?$allocator@D@2@@std@@QAE@PBDABV?$allocator@D@1@@Z 1006f66e f   msvcprt:MSVCP60.dll
 0001:0006e674       ??0?$basic_string@DU?$char_traits@D@std@@V?$allocator@D@2@@std@@QAE@ABV?$allocator@D@1@@Z 1006f674 f   msvcprt:MSVCP60.dll
 0001:0006e67a       ?compare@?$basic_string@DU?$char_traits@D@std@@V?$allocator@D@2@@std@@QBEHIIPBDI@Z 1006f67a f   msvcprt:MSVCP60.dll
 0001:0006e680       ??8std@@YA_NABV?$basic_string@DU?$char_traits@D@std@@V?$allocator@D@2@@0@PBD@Z 1006f680 f   msvcprt:MSVCP60.dll
 0001:0006e686       ?rfind@?$basic_string@DU?$char_traits@D@std@@V?$allocator@D@2@@std@@QBEIPBDII@Z 1006f686 f   msvcprt:MSVCP60.dll
 0001:0006e68c       ??Hstd@@YA?AV?$basic_string@DU?$char_traits@D@std@@V?$allocator@D@2@@0@ABV10@D@Z 1006f68c f   msvcprt:MSVCP60.dll
 0001:0006e692       ??Hstd@@YA?AV?$basic_string@DU?$char_traits@D@std@@V?$allocator@D@2@@0@ABV10@0@Z 1006f692 f   msvcprt:MSVCP60.dll
 0001:0006e698       _timeGetTime@0             1006f698 f   winmm:WINMM.dll
 0001:0006e69e       ___CxxFrameHandler         1006f69e f   MSVCRT:MSVCRT.dll
 0001:0006e6b0       __onexit                   1006f6b0 f   MSVCRT:atonexit.obj
 0001:0006e6dc       _atexit                    1006f6dc f   MSVCRT:atonexit.obj
 0001:0006e6ee       _rand                      1006f6ee f   MSVCRT:MSVCRT.dll
 0001:0006e6f4       __CIacos                   1006f6f4 f   MSVCRT:MSVCRT.dll
 0001:0006e6fa       ??2@YAPAXI@Z               1006f6fa f   MSVCRT:MSVCRT.dll
 0001:0006e700       __purecall                 1006f700 f   MSVCRT:MSVCRT.dll
 0001:0006e706       ??_M@YGXPAXIHP6EX0@Z@Z     1006f706 f   MSVCRT:ehvecdtr.obj
 0001:0006e786       ?__ArrayUnwind@@YGXPAXIHP6EX0@Z@Z 1006f786 f   MSVCRT:ehvecdtr.obj
 0001:0006e7fa       ??_L@YGXPAXIHP6EX0@Z1@Z    1006f7fa f   MSVCRT:ehvecctr.obj
 0001:0006e87c       _fclose                    1006f87c f   MSVCRT:MSVCRT.dll
 0001:0006e882       _atof                      1006f882 f   MSVCRT:MSVCRT.dll
 0001:0006e888       _atoi                      1006f888 f   MSVCRT:MSVCRT.dll
 0001:0006e88e       _strtok                    1006f88e f   MSVCRT:MSVCRT.dll
 0001:0006e894       _fgets                     1006f894 f   MSVCRT:MSVCRT.dll
 0001:0006e89a       _fopen                     1006f89a f   MSVCRT:MSVCRT.dll
 0001:0006e8a0       _memmove                   1006f8a0 f   MSVCRT:MSVCRT.dll
 0001:0006e8a6       _srand                     1006f8a6 f   MSVCRT:MSVCRT.dll
 0001:0006e8ac       __ftol                     1006f8ac f   MSVCRT:MSVCRT.dll
 0001:0006e8b2       __CRT_INIT@12              1006f8b2 f   MSVCRT:crtdll.obj
 0001:0006e95d       __DllMainCRTStartup@12     1006f95d f   MSVCRT:crtdll.obj
 0001:0006e9fa       __finite                   1006f9fa f   MSVCRT:MSVCRT.dll
 0001:0006ea00       __alloca_probe             1006fa00 f   MSVCRT:chkstk.obj
 0001:0006ea00       __chkstk                   1006fa00 f   MSVCRT:chkstk.obj
 0001:0006ea30       __snprintf                 1006fa30 f   MSVCRT:MSVCRT.dll
 0001:0006ea38       __EH_prolog                1006fa38 f   MSVCRT:ehprolog.obj
 0001:0006ea58       __vsnprintf                1006fa58 f   MSVCRT:MSVCRT.dll
 0001:0006ea5e       _isdigit                   1006fa5e f   MSVCRT:MSVCRT.dll
 0001:0006ea64       _isalpha                   1006fa64 f   MSVCRT:MSVCRT.dll
 0001:0006ea6a       _isalnum                   1006fa6a f   MSVCRT:MSVCRT.dll
 0001:0006ea70       _isspace                   1006fa70 f   MSVCRT:MSVCRT.dll
 0001:0006ea76       _sscanf                    1006fa76 f   MSVCRT:MSVCRT.dll
 0001:0006ea7c       _sprintf                   1006fa7c f   MSVCRT:MSVCRT.dll
 0001:0006ea82       _qsort                     1006fa82 f   MSVCRT:MSVCRT.dll
 0001:0006ea90       __allmul                   1006fa90 f   MSVCRT:llmul.obj
 0001:0006eac4       __controlfp                1006fac4 f   MSVCRT:MSVCRT.dll
 0001:0006eaca       _ceil                      1006faca f   MSVCRT:MSVCRT.dll
 0001:0006ead0       _floor                     1006fad0 f   MSVCRT:MSVCRT.dll
 0001:0006ead6       _longjmp                   1006fad6 f   MSVCRT:MSVCRT.dll
 0001:0006eadc       __setjmp3                  1006fadc f   MSVCRT:MSVCRT.dll
 0001:0006eae2       __CIpow                    1006fae2 f   MSVCRT:MSVCRT.dll
 0001:0006eae8       _exit                      1006fae8 f   MSVCRT:MSVCRT.dll
 0001:0006eaee       _malloc                    1006faee f   MSVCRT:MSVCRT.dll
 0001:0006eaf4       _free                      1006faf4 f   MSVCRT:MSVCRT.dll
 0001:0006eafa       _calloc                    1006fafa f   MSVCRT:MSVCRT.dll
 0001:0006eb00       ___dllonexit               1006fb00 f   MSVCRT:MSVCRT.dll
 0001:0006eb06       __except_handler3          1006fb06 f   MSVCRT:MSVCRT.dll
 0001:0006eb0c       ?terminate@@YAXXZ          1006fb0c f   MSVCRT:MSVCRT.dll
 0001:0006eb12       __initterm                 1006fb12 f   MSVCRT:MSVCRT.dll
 0001:0006eb20       _WideCharToMultiByte@32    1006fb20 f   kernel32:KERNEL32.dll
 0001:0006eb26       _MultiByteToWideChar@24    1006fb26 f   kernel32:KERNEL32.dll
 0001:0006eb2c       _OutputDebugStringA@4      1006fb2c f   kernel32:KERNEL32.dll
 0001:0006eb32       _GetLastError@0            1006fb32 f   kernel32:KERNEL32.dll
 0001:0006eb38       _MapViewOfFile@20          1006fb38 f   kernel32:KERNEL32.dll
 0001:0006eb3e       _CreateFileMappingA@24     1006fb3e f   kernel32:KERNEL32.dll
 0001:0006eb44       _CreateFileW@28            1006fb44 f   kernel32:KERNEL32.dll
 0001:0006eb4a       _GetVersionExA@4           1006fb4a f   kernel32:KERNEL32.dll
 0001:0006eb50       _UnmapViewOfFile@4         1006fb50 f   kernel32:KERNEL32.dll
 0001:0006eb56       _InterlockedIncrement@4    1006fb56 f   kernel32:KERNEL32.dll
 0001:0006eb5c       _HeapValidate@12           1006fb5c f   kernel32:KERNEL32.dll
 0001:0006eb62       _InterlockedDecrement@4    1006fb62 f   kernel32:KERNEL32.dll
 0001:0006eb68       _DeleteFileA@4             1006fb68 f   kernel32:KERNEL32.dll
 0001:0006eb6e       _GetTempFileNameA@16       1006fb6e f   kernel32:KERNEL32.dll
 0001:0006eb74       _GetTempPathA@8            1006fb74 f   kernel32:KERNEL32.dll
 0001:0006eb7a       _LockResource@4            1006fb7a f   kernel32:KERNEL32.dll
 0001:0006eb80       _LoadResource@8            1006fb80 f   kernel32:KERNEL32.dll
 0001:0006eb86       _SizeofResource@8          1006fb86 f   kernel32:KERNEL32.dll
 0001:0006eb8c       _FindResourceA@12          1006fb8c f   kernel32:KERNEL32.dll
 0001:0006eb92       _FindResourceW@12          1006fb92 f   kernel32:KERNEL32.dll
 0001:0006eb98       _DrawTextA@20              1006fb98 f   user32:USER32.dll
 0001:0006eb9e       _DrawTextW@20              1006fb9e f   user32:USER32.dll
 0001:0006eba4       _GetObjectA@12             1006fba4 f   gdi32:GDI32.dll
 0001:0006ebaa       _DeleteObject@4            1006fbaa f   gdi32:GDI32.dll
 0001:0006ebb0       _CreateFontIndirectA@4     1006fbb0 f   gdi32:GDI32.dll
 0001:0006ebb6       _DeleteDC@4                1006fbb6 f   gdi32:GDI32.dll
 0001:0006ebbc       _SelectObject@8            1006fbbc f   gdi32:GDI32.dll
 0001:0006ebc2       _SetTextColor@8            1006fbc2 f   gdi32:GDI32.dll
 0001:0006ebc8       _SetBkColor@8              1006fbc8 f   gdi32:GDI32.dll
 0001:0006ebce       _SetBkMode@8               1006fbce f   gdi32:GDI32.dll
 0001:0006ebd4       _CreateDIBSection@24       1006fbd4 f   gdi32:GDI32.dll
 0001:0006ebda       _CreateCompatibleDC@4      1006fbda f   gdi32:GDI32.dll
 0001:0006ebe0       __ultoa                    1006fbe0 f   MSVCRT:MSVCRT.dll
 0002:00000000       __imp__DeleteObject@4      10072000     gdi32:GDI32.dll
 0002:00000004       __imp__CreateFontIndirectA@4 10072004     gdi32:GDI32.dll
 0002:00000008       __imp__GetObjectA@12       10072008     gdi32:GDI32.dll
 0002:0000000c       __imp__DeleteDC@4          1007200c     gdi32:GDI32.dll
 0002:00000010       __imp__SetTextColor@8      10072010     gdi32:GDI32.dll
 0002:00000014       __imp__SetBkColor@8        10072014     gdi32:GDI32.dll
 0002:00000018       __imp__SelectObject@8      10072018     gdi32:GDI32.dll
 0002:0000001c       __imp__CreateDIBSection@24 1007201c     gdi32:GDI32.dll
 0002:00000020       __imp__CreateCompatibleDC@4 10072020     gdi32:GDI32.dll
 0002:00000024       __imp__SetBkMode@8         10072024     gdi32:GDI32.dll
 0002:00000028       \177GDI32_NULL_THUNK_DATA  10072028     gdi32:GDI32.dll
 0002:0000002c       __imp__GetProcAddress@8    1007202c     kernel32:KERNEL32.dll
 0002:00000030       __imp__FreeLibrary@4       10072030     kernel32:KERNEL32.dll
 0002:00000034       __imp__FindFirstFileA@8    10072034     kernel32:KERNEL32.dll
 0002:00000038       __imp__WriteFile@20        10072038     kernel32:KERNEL32.dll
 0002:0000003c       __imp__LoadLibraryA@4      1007203c     kernel32:KERNEL32.dll
 0002:00000040       __imp__GetModuleFileNameA@12 10072040     kernel32:KERNEL32.dll
 0002:00000044       __imp__GetFileSize@8       10072044     kernel32:KERNEL32.dll
 0002:00000048       __imp__ReadFile@20         10072048     kernel32:KERNEL32.dll
 0002:0000004c       __imp__HeapAlloc@12        1007204c     kernel32:KERNEL32.dll
 0002:00000050       __imp__CreateFileA@28      10072050     kernel32:KERNEL32.dll
 0002:00000054       __imp__CloseHandle@4       10072054     kernel32:KERNEL32.dll
 0002:00000058       __imp__GetModuleHandleA@4  10072058     kernel32:KERNEL32.dll
 0002:0000005c       __imp__FindClose@4         1007205c     kernel32:KERNEL32.dll
 0002:00000060       __imp__FindResourceW@12    10072060     kernel32:KERNEL32.dll
 0002:00000064       __imp__FindResourceA@12    10072064     kernel32:KERNEL32.dll
 0002:00000068       __imp__SizeofResource@8    10072068     kernel32:KERNEL32.dll
 0002:0000006c       __imp__WideCharToMultiByte@32 1007206c     kernel32:KERNEL32.dll
 0002:00000070       __imp__MultiByteToWideChar@24 10072070     kernel32:KERNEL32.dll
 0002:00000074       __imp__OutputDebugStringA@4 10072074     kernel32:KERNEL32.dll
 0002:00000078       __imp__GetLastError@0      10072078     kernel32:KERNEL32.dll
 0002:0000007c       __imp__MapViewOfFile@20    1007207c     kernel32:KERNEL32.dll
 0002:00000080       __imp__CreateFileMappingA@24 10072080     kernel32:KERNEL32.dll
 0002:00000084       __imp__CreateFileW@28      10072084     kernel32:KERNEL32.dll
 0002:00000088       __imp__GetVersionExA@4     10072088     kernel32:KERNEL32.dll
 0002:0000008c       __imp__UnmapViewOfFile@4   1007208c     kernel32:KERNEL32.dll
 0002:00000090       __imp__InterlockedIncrement@4 10072090     kernel32:KERNEL32.dll
 0002:00000094       __imp__HeapValidate@12     10072094     kernel32:KERNEL32.dll
 0002:00000098       __imp__InterlockedDecrement@4 10072098     kernel32:KERNEL32.dll
 0002:0000009c       __imp__HeapFree@12         1007209c     kernel32:KERNEL32.dll
 0002:000000a0       __imp__DeleteFileA@4       100720a0     kernel32:KERNEL32.dll
 0002:000000a4       __imp__GetTempFileNameA@16 100720a4     kernel32:KERNEL32.dll
 0002:000000a8       __imp__GetTempPathA@8      100720a8     kernel32:KERNEL32.dll
 0002:000000ac       __imp__LockResource@4      100720ac     kernel32:KERNEL32.dll
 0002:000000b0       __imp__LoadResource@8      100720b0     kernel32:KERNEL32.dll
 0002:000000b4       __imp__GetProcessHeap@0    100720b4     kernel32:KERNEL32.dll
 0002:000000b8       \177KERNEL32_NULL_THUNK_DATA 100720b8     kernel32:KERNEL32.dll
 0002:000000bc       __imp_?_Split@?$basic_string@DU?$char_traits@D@std@@V?$allocator@D@2@@std@@AAEXXZ 100720bc     msvcprt:MSVCP60.dll
 0002:000000c0       __imp_?_Xran@std@@YAXXZ    100720c0     msvcprt:MSVCP60.dll
 0002:000000c4       __imp_??0?$basic_string@DU?$char_traits@D@std@@V?$allocator@D@2@@std@@QAE@PBDABV?$allocator@D@1@@Z 100720c4     msvcprt:MSVCP60.dll
 0002:000000c8       __imp_??0?$basic_string@DU?$char_traits@D@std@@V?$allocator@D@2@@std@@QAE@ABV?$allocator@D@1@@Z 100720c8     msvcprt:MSVCP60.dll
 0002:000000cc       __imp_?compare@?$basic_string@DU?$char_traits@D@std@@V?$allocator@D@2@@std@@QBEHIIPBDI@Z 100720cc     msvcprt:MSVCP60.dll
 0002:000000d0       __imp_?find_last_of@?$basic_string@DU?$char_traits@D@std@@V?$allocator@D@2@@std@@QBEIPBDII@Z 100720d0     msvcprt:MSVCP60.dll
 0002:000000d4       __imp_??Hstd@@YA?AV?$basic_string@DU?$char_traits@D@std@@V?$allocator@D@2@@0@ABV10@PBD@Z 100720d4     msvcprt:MSVCP60.dll
 0002:000000d8       __imp_??0?$basic_string@DU?$char_traits@D@std@@V?$allocator@D@2@@std@@QAE@ABV01@@Z 100720d8     msvcprt:MSVCP60.dll
 0002:000000dc       __imp_??1_Lockit@std@@QAE@XZ 100720dc     msvcprt:MSVCP60.dll
 0002:000000e0       __imp_??Hstd@@YA?AV?$basic_string@DU?$char_traits@D@std@@V?$allocator@D@2@@0@ABV10@0@Z 100720e0     msvcprt:MSVCP60.dll
 0002:000000e4       __imp_?_Tidy@?$basic_string@DU?$char_traits@D@std@@V?$allocator@D@2@@std@@AAEX_N@Z 100720e4     msvcprt:MSVCP60.dll
 0002:000000e8       __imp_?_Copy@?$basic_string@DU?$char_traits@D@std@@V?$allocator@D@2@@std@@AAEXI@Z 100720e8     msvcprt:MSVCP60.dll
 0002:000000ec       __imp_?npos@?$basic_string@DU?$char_traits@D@std@@V?$allocator@D@2@@std@@2IB 100720ec     msvcprt:MSVCP60.dll
 0002:000000f0       __imp_?_C@?1??_Nullstr@?$basic_string@DU?$char_traits@D@std@@V?$allocator@D@2@@std@@CAPBDXZ@4DB 100720f0     msvcprt:MSVCP60.dll
 0002:000000f4       __imp_?erase@?$basic_string@DU?$char_traits@D@std@@V?$allocator@D@2@@std@@QAEAAV12@II@Z 100720f4     msvcprt:MSVCP60.dll
 0002:000000f8       __imp_?append@?$basic_string@DU?$char_traits@D@std@@V?$allocator@D@2@@std@@QAEAAV12@ID@Z 100720f8     msvcprt:MSVCP60.dll
 0002:000000fc       __imp_?_Freeze@?$basic_string@DU?$char_traits@D@std@@V?$allocator@D@2@@std@@AAEXXZ 100720fc     msvcprt:MSVCP60.dll
 0002:00000100       __imp_??Hstd@@YA?AV?$basic_string@DU?$char_traits@D@std@@V?$allocator@D@2@@0@PBDABV10@@Z 10072100     msvcprt:MSVCP60.dll
 0002:00000104       __imp_?substr@?$basic_string@DU?$char_traits@D@std@@V?$allocator@D@2@@std@@QBE?AV12@II@Z 10072104     msvcprt:MSVCP60.dll
 0002:00000108       __imp_?assign@?$basic_string@DU?$char_traits@D@std@@V?$allocator@D@2@@std@@QAEAAV12@ABV12@II@Z 10072108     msvcprt:MSVCP60.dll
 0002:0000010c       __imp_??0_Lockit@std@@QAE@XZ 1007210c     msvcprt:MSVCP60.dll
 0002:00000110       __imp_??Mstd@@YA_NABV?$basic_string@DU?$char_traits@D@std@@V?$allocator@D@2@@0@0@Z 10072110     msvcprt:MSVCP60.dll
 0002:00000114       __imp_??8std@@YA_NABV?$basic_string@DU?$char_traits@D@std@@V?$allocator@D@2@@0@PBD@Z 10072114     msvcprt:MSVCP60.dll
 0002:00000118       __imp_?_Grow@?$basic_string@DU?$char_traits@D@std@@V?$allocator@D@2@@std@@AAE_NI_N@Z 10072118     msvcprt:MSVCP60.dll
 0002:0000011c       __imp_??0Init@ios_base@std@@QAE@XZ 1007211c     msvcprt:MSVCP60.dll
 0002:00000120       __imp_??1Init@ios_base@std@@QAE@XZ 10072120     msvcprt:MSVCP60.dll
 0002:00000124       __imp_?_Eos@?$basic_string@DU?$char_traits@D@std@@V?$allocator@D@2@@std@@AAEXI@Z 10072124     msvcprt:MSVCP60.dll
 0002:00000128       __imp_?assign@?$basic_string@DU?$char_traits@D@std@@V?$allocator@D@2@@std@@QAEAAV12@PBDI@Z 10072128     msvcprt:MSVCP60.dll
 0002:0000012c       __imp_??1?$basic_string@DU?$char_traits@D@std@@V?$allocator@D@2@@std@@QAE@XZ 1007212c     msvcprt:MSVCP60.dll
 0002:00000130       __imp_??1_Winit@std@@QAE@XZ 10072130     msvcprt:MSVCP60.dll
 0002:00000134       __imp_??0_Winit@std@@QAE@XZ 10072134     msvcprt:MSVCP60.dll
 0002:00000138       __imp_??Hstd@@YA?AV?$basic_string@DU?$char_traits@D@std@@V?$allocator@D@2@@0@ABV10@D@Z 10072138     msvcprt:MSVCP60.dll
 0002:0000013c       __imp_?rfind@?$basic_string@DU?$char_traits@D@std@@V?$allocator@D@2@@std@@QBEIPBDII@Z 1007213c     msvcprt:MSVCP60.dll
 0002:00000140       __imp_?_Xlen@std@@YAXXZ    10072140     msvcprt:MSVCP60.dll
 0002:00000144       \177MSVCP60_NULL_THUNK_DATA 10072144     msvcprt:MSVCP60.dll
 0002:00000148       __imp__qsort               10072148     MSVCRT:MSVCRT.dll
 0002:0000014c       __imp___controlfp          1007214c     MSVCRT:MSVCRT.dll
 0002:00000150       __imp__ceil                10072150     MSVCRT:MSVCRT.dll
 0002:00000154       __imp__floor               10072154     MSVCRT:MSVCRT.dll
 0002:00000158       __imp__longjmp             10072158     MSVCRT:MSVCRT.dll
 0002:0000015c       __imp___setjmp3            1007215c     MSVCRT:MSVCRT.dll
 0002:00000160       __imp___CIpow              10072160     MSVCRT:MSVCRT.dll
 0002:00000164       __imp__exit                10072164     MSVCRT:MSVCRT.dll
 0002:00000168       __imp__malloc              10072168     MSVCRT:MSVCRT.dll
 0002:0000016c       __imp__free                1007216c     MSVCRT:MSVCRT.dll
 0002:00000170       __imp__calloc              10072170     MSVCRT:MSVCRT.dll
 0002:00000174       __imp____dllonexit         10072174     MSVCRT:MSVCRT.dll
 0002:00000178       __imp___onexit             10072178     MSVCRT:MSVCRT.dll
 0002:0000017c       __imp___except_handler3    1007217c     MSVCRT:MSVCRT.dll
 0002:00000180       __imp_?terminate@@YAXXZ    10072180     MSVCRT:MSVCRT.dll
 0002:00000184       __imp___initterm           10072184     MSVCRT:MSVCRT.dll
 0002:00000188       __imp___adjust_fdiv        10072188     MSVCRT:MSVCRT.dll
 0002:0000018c       __imp__sprintf             1007218c     MSVCRT:MSVCRT.dll
 0002:00000190       __imp__sscanf              10072190     MSVCRT:MSVCRT.dll
 0002:00000194       __imp__isspace             10072194     MSVCRT:MSVCRT.dll
 0002:00000198       __imp__isalnum             10072198     MSVCRT:MSVCRT.dll
 0002:0000019c       __imp__isalpha             1007219c     MSVCRT:MSVCRT.dll
 0002:000001a0       __imp__isdigit             100721a0     MSVCRT:MSVCRT.dll
 0002:000001a4       __imp___vsnprintf          100721a4     MSVCRT:MSVCRT.dll
 0002:000001a8       __imp___snprintf           100721a8     MSVCRT:MSVCRT.dll
 0002:000001ac       __imp___finite             100721ac     MSVCRT:MSVCRT.dll
 0002:000001b0       __imp__memmove             100721b0     MSVCRT:MSVCRT.dll
 0002:000001b4       __imp__fopen               100721b4     MSVCRT:MSVCRT.dll
 0002:000001b8       __imp__fgets               100721b8     MSVCRT:MSVCRT.dll
 0002:000001bc       __imp__strtok              100721bc     MSVCRT:MSVCRT.dll
 0002:000001c0       __imp__atof                100721c0     MSVCRT:MSVCRT.dll
 0002:000001c4       __imp__fclose              100721c4     MSVCRT:MSVCRT.dll
 0002:000001c8       __imp___purecall           100721c8     MSVCRT:MSVCRT.dll
 0002:000001cc       __imp_??2@YAPAXI@Z         100721cc     MSVCRT:MSVCRT.dll
 0002:000001d0       __imp___CIacos             100721d0     MSVCRT:MSVCRT.dll
 0002:000001d4       __imp__srand               100721d4     MSVCRT:MSVCRT.dll
 0002:000001d8       __imp___ftol               100721d8     MSVCRT:MSVCRT.dll
 0002:000001dc       __imp____CxxFrameHandler   100721dc     MSVCRT:MSVCRT.dll
 0002:000001e0       __imp__rand                100721e0     MSVCRT:MSVCRT.dll
 0002:000001e4       __imp__atoi                100721e4     MSVCRT:MSVCRT.dll
 0002:000001e8       __imp__ultoa               100721e8     MSVCRT:MSVCRT.dll
 0002:000001e8       __imp___ultoa              100721e8     MSVCRT:MSVCRT.dll
 0002:000001ec       \177MSVCRT_NULL_THUNK_DATA 100721ec     MSVCRT:MSVCRT.dll
 0002:000001f0       __imp__GetParent@4         100721f0     user32:USER32.dll
 0002:000001f4       __imp__MessageBoxExA@20    100721f4     user32:USER32.dll
 0002:000001f8       __imp__DrawTextA@20        100721f8     user32:USER32.dll
 0002:000001fc       __imp__DrawTextW@20        100721fc     user32:USER32.dll
 0002:00000200       __imp__GetAsyncKeyState@4  10072200     user32:USER32.dll
 0002:00000204       \177USER32_NULL_THUNK_DATA 10072204     user32:USER32.dll
 0002:00000208       __imp__timeGetTime@0       10072208     winmm:WINMM.dll
 0002:0000020c       \177WINMM_NULL_THUNK_DATA  1007220c     winmm:WINMM.dll
 0002:00000210       __imp__GetOpenFileNameA@4  10072210     comdlg32:comdlg32.dll
 0002:00000214       __imp__CommDlgExtendedError@0 10072214     comdlg32:comdlg32.dll
 0002:00000218       \177comdlg32_NULL_THUNK_DATA 10072218     comdlg32:comdlg32.dll
 0002:0000023c       ??_7EBValue@@6B@           1007223c     eb_property.obj
 0002:00000274       ??_7?$EBStr@D@@6B@         10072274     eb_property.obj
 0002:000002dc       __real@4@3ff98efa350000000000 100722dc     lightobjects.obj
 0002:000002e0       __real@4@4007b400000000000000 100722e0     lightobjects.obj
 0002:000002e4       __real@4@4008b400000000000000 100722e4     lightobjects.obj
 0002:000002e8       __real@4@3ff08001000200040000 100722e8     lightobjects.obj
 0002:000002ec       __real@4@3fff8000000000000000 100722ec     lightobjects.obj
 0002:000002f0       __real@4@3fffa666660000000000 100722f0     lightobjects.obj
 0002:000002f4       ??_7CLight@@6B@            100722f4     lightobjects.obj
 0002:000002f8       __real@4@bfff8000000000000000 100722f8     lightobjects.obj
 0002:000002fc       __real@4@00000000000000000000 100722fc     lightobjects.obj
 0002:00000300       __real@4@3ffccccccd0000000000 10072300     lightobjects.obj
 0002:00000304       ??_7NVComplexMeshBounds@nv_objects@@6B@ 10072304     lightobjects.obj
 0002:00000308       __real@4@3ffe8000000000000000 10072308     lightobjects.obj
 0002:00000310       ??_7NVComplexMesh@nv_objects@@6B@ 10072310     nvcomplexmesh.obj
 0002:00000398       ??_7NVTextureFileResource@nv_objects@@6B@ 10072398     nvcomplexmesh.obj
 0002:000003b0       ??_7NVTextureResource@nv_objects@@6B@ 100723b0     nvcomplexmesh.obj
 0002:000003c8       ??_7NVMaterialResource@nv_objects@@6B@ 100723c8     nvcomplexmesh.obj
 0002:000003e0       ??_7NVBaseResource@nv_objects@@6B@ 100723e0     nvcomplexmesh.obj
 0002:000003f8       __real@4@3ffca2f9832237cda000 100723f8     nvcomplexmesh.obj
 0002:000003fc       __real@4@3ffda2f9832237cda000 100723fc     nvcomplexmesh.obj
 0002:00000400       __real@4@4001c90fdb0000000000 10072400     nvcomplexmesh.obj
 0002:00000404       __real@4@4000c90fdb0000000000 10072404     nvcomplexmesh.obj
 0002:00000408       ??_7NVComplexMeshVertexData@nv_objects@@6B@ 10072408     nvcomplexmesh.obj
 0002:0000040c       ??_7NVComplexMeshPass@nv_objects@@6B@ 1007240c     nvcomplexmeshpass.obj
 0002:0000042c       ??_7CShaderLinkerDemo@@6B@ 1007242c     shader_LinkerDemo.obj
 0002:00000494       ??_7EBEffect@@6B@          10072494     shader_LinkerDemo.obj
 0002:000004fc       ??_7EBPropertySet@@6B@     100724fc     shader_LinkerDemo.obj
 0002:00000524       ??_7EBTriggerProperty@@6B@ 10072524     shader_LinkerDemo.obj
 0002:00000548       ??_7EBEnumValue@@6B@       10072548     shader_LinkerDemo.obj
 0002:00000570       ??_7EBEnumProperty@@6B@    10072570     shader_LinkerDemo.obj
 0002:00000598       ??_7EBProperty@@6B@        10072598     shader_LinkerDemo.obj
 0002:000005b8       ??_7NVTextureNormalMapFromResource@nv_objects@@6B@ 100725b8     shader_LinkerDemo.obj
 0002:000005d0       __real@4@3ffbcccccd0000000000 100725d0     shader_LinkerDemo.obj
 0002:000005d4       ??_7MouseUI@@6B@           100725d4     shader_LinkerDemo.obj
 0002:000005e8       ??_7NVResourceManager@nv_objects@@6B@ 100725e8     shader_LinkerDemo.obj
 0002:000005ec       ??_7?$Singleton@VNVResourceManager@nv_objects@@@@6B@ 100725ec     shader_LinkerDemo.obj
 0002:000005f0       ??_7NVStateManager@nv_objects@@6B@ 100725f0     shader_LinkerDemo.obj
 0002:00000664       ??_7?$Singleton@VNVStateManager@nv_objects@@@@6B@ 10072664     shader_LinkerDemo.obj
 0002:00000668       __real@4@3ffecccccd0000000000 10072668     shader_LinkerDemo.obj
 0002:0000066c       __real@4@4000c000000000000000 1007266c     shader_LinkerDemo.obj
 0002:00000670       __real@4@c0008000000000000000 10072670     shader_LinkerDemo.obj
 0002:00000674       __real@4@3ff9a3d70a0000000000 10072674     shader_LinkerDemo.obj
 0002:00000678       ??_7NVDataFormat_NVHS@nv_objects@@6B@ 10072678     shader_LinkerDemo.obj
 0002:00000698       ??_7NVDataFormat_Q8W8V8U8@nv_objects@@6B@ 10072698     shader_LinkerDemo.obj
 0002:000006b8       ??_7NVDataFormat_A8R8G8B8@nv_objects@@6B@ 100726b8     shader_LinkerDemo.obj
 0002:000006dc       ??_7NVDataFormat_X8R8G8B8@nv_objects@@6B@ 100726dc     shader_LinkerDemo.obj
 0002:000006fc       ??_7NV2DTextureLocker@nv_objects@@6B@ 100726fc     shader_LinkerDemo.obj
 0002:00000700       __real@4@3ff78080808080808000 10072700     shader_LinkerDemo.obj
 0002:00000704       __real@4@3ffbe147ae0000000000 10072704     shader_LinkerDemo.obj
 0002:00000708       __real@4@3ffe970a3d0000000000 10072708     shader_LinkerDemo.obj
 0002:0000070c       __real@4@3ffd99999a0000000000 1007270c     shader_LinkerDemo.obj
 0002:00000710       __real@4@4005ff00000000000000 10072710     shader_LinkerDemo.obj
 0002:00000714       __real@4@3ff88080808080808000 10072714     shader_LinkerDemo.obj
 0002:00000718       __real@4@400dfffe000000000000 10072718     shader_LinkerDemo.obj
 0002:0000071c       __real@3727c5ac            1007271c     d3dx8:d3dxmath.obj
 0002:00000720       __real@b727c5ac            10072720     d3dx8:d3dxmath.obj
 0002:00000724       __real@3f800000            10072724     d3dx8:d3dxmath.obj
 0002:00000728       __real@40400000            10072728     d3dx8:d3dxmath.obj
 0002:0000072c       __real@3f000000            1007272c     d3dx8:d3dxmath.obj
 0002:00000730       __real@40800000            10072730     d3dx8:d3dxmath.obj
 0002:00000734       __real@40a00000            10072734     d3dx8:d3dxmath.obj
 0002:00000738       __real@40000000            10072738     d3dx8:d3dxmath.obj
 0002:0000073c       __real@3e800000            1007273c     d3dx8:d3dxmath.obj
 0002:00000740       __real@00000000            10072740     d3dx8:d3dxmath.obj
 0002:00000744       __real@2edbe6fe            10072744     d3dx8:d3dxmath.obj
 0002:00000748       __real@bf800000            10072748     d3dx8:d3dxmath.obj
 0002:0000074c       __real@3f372474            1007274c     d3dx8:d3dxmath.obj
 0002:00000750       __real@3d93a92a            10072750     d3dx8:d3dxmath.obj
 0002:00000754       __real@3e59999a            10072754     d3dx8:d3dxmath.obj
 0002:00000758       __real@c0000000            10072758     d3dx8:d3dxmath.obj
 0002:0000075c       ??_C@_0BM@OPOKJHEN@Unrecognized?5error?3?50x?$CF0?48x?$AA@ 1007275c     d3dx8:d3dx8core.obj
 0002:00000778       ??_C@_02DKCKIIND@?$CFs?$AA@ 10072778     d3dx8:d3dx8core.obj
 0002:0000077c       ??_C@_0BE@KPKGPDGC@D3DXERR_INVALIDMESH?$AA@ 1007277c     d3dx8:d3dx8core.obj
 0002:00000790       ??_C@_0BH@OLPAEDNL@D3DXERR_CANNOTATTRSORT?$AA@ 10072790     d3dx8:d3dx8core.obj
 0002:000007a8       ??_C@_0BN@OFGKBIOG@D3DXERR_SKINNINGNOTSUPPORTED?$AA@ 100727a8     d3dx8:d3dx8core.obj
 0002:000007c8       ??_C@_0BK@BEMAPGE@D3DXERR_TOOMANYINFLUENCES?$AA@ 100727c8     d3dx8:d3dx8core.obj
 0002:000007e4       ??_C@_0BE@PJFJKLII@D3DXERR_INVALIDDATA?$AA@ 100727e4     d3dx8:d3dx8core.obj
 0002:000007f8       ??_C@_04LNELPODO@S_OK?$AA@ 100727f8     d3dx8:d3dx8core.obj
 0002:00000800       ??_C@_0CA@LBFOOIIL@D3DXERR_CANNOTMODIFYINDEXBUFFER?$AA@ 10072800     d3dx8:d3dx8core.obj
 0002:00000820       ??_C@_0BA@FEPMNEFM@D3DERR_NOTFOUND?$AA@ 10072820     d3dx8:d3dx8core.obj
 0002:00000830       ??_C@_0BA@EMFIIMDH@D3DERR_MOREDATA?$AA@ 10072830     d3dx8:d3dx8core.obj
 0002:00000840       ??_C@_0BC@EMHBBGDJ@D3DERR_DEVICELOST?$AA@ 10072840     d3dx8:d3dx8core.obj
 0002:00000854       ??_C@_0BG@ODHIPO@D3DERR_DEVICENOTRESET?$AA@ 10072854     d3dx8:d3dx8core.obj
 0002:0000086c       ??_C@_0BE@EMOOFEGA@D3DERR_NOTAVAILABLE?$AA@ 1007286c     d3dx8:d3dx8core.obj
 0002:00000880       ??_C@_0BF@IKIMMOMN@D3DERR_INVALIDDEVICE?$AA@ 10072880     d3dx8:d3dx8core.obj
 0002:00000898       ??_C@_0BD@NKNFKHMN@D3DERR_INVALIDCALL?$AA@ 10072898     d3dx8:d3dx8core.obj
 0002:000008ac       ??_C@_0BL@NGLDGHAB@D3DERR_DRIVERINTERNALERROR?$AA@ 100728ac     d3dx8:d3dx8core.obj
 0002:000008c8       ??_C@_0BL@BJOJBFEN@D3DERR_UNSUPPORTEDALPHAARG?$AA@ 100728c8     d3dx8:d3dx8core.obj
 0002:000008e4       ??_C@_0BJ@INFNOJNF@D3DERR_TOOMANYOPERATIONS?$AA@ 100728e4     d3dx8:d3dx8core.obj
 0002:00000900       ??_C@_0CA@CFPOKCEH@D3DERR_CONFLICTINGTEXTUREFILTER?$AA@ 10072900     d3dx8:d3dx8core.obj
 0002:00000920       ??_C@_0BO@MOJGBOAN@D3DERR_UNSUPPORTEDFACTORVALUE?$AA@ 10072920     d3dx8:d3dx8core.obj
 0002:00000940       ??_C@_0BO@EMDMGLEF@D3DERR_CONFLICTINGRENDERSTATE?$AA@ 10072940     d3dx8:d3dx8core.obj
 0002:00000960       ??_C@_0CA@FJBFGLDN@D3DERR_UNSUPPORTEDTEXTUREFILTER?$AA@ 10072960     d3dx8:d3dx8core.obj
 0002:00000980       ??_C@_0CB@FNAABFGA@D3DERR_CONFLICTINGTEXTUREPALETTE@ 10072980     d3dx8:d3dx8core.obj
 0002:000009a4       ??_C@_0CB@JPKBHPNI@D3DERR_UNSUPPORTEDALPHAOPERATION@ 100729a4     d3dx8:d3dx8core.obj
 0002:000009c8       ??_C@_09NMKLNOAF@E_NOTIMPL?$AA@ 100729c8     d3dx8:d3dx8core.obj
 0002:000009d4       ??_C@_06FOOEOEIK@E_FAIL?$AA@ 100729d4     d3dx8:d3dx8core.obj
 0002:000009dc       ??_C@_0O@MNIAMCLP@E_OUTOFMEMORY?$AA@ 100729dc     d3dx8:d3dx8core.obj
 0002:000009ec       ??_C@_0BI@GJDGNNKD@D3DERR_OUTOFVIDEOMEMORY?$AA@ 100729ec     d3dx8:d3dx8core.obj
 0002:00000a04       ??_C@_0BK@BPHFHCLE@D3DERR_WRONGTEXTUREFORMAT?$AA@ 10072a04     d3dx8:d3dx8core.obj
 0002:00000a20       ??_C@_0CB@CGHHLPPG@D3DERR_UNSUPPORTEDCOLOROPERATION@ 10072a20     d3dx8:d3dx8core.obj
 0002:00000a44       ??_C@_0BL@CDKLBBHI@D3DERR_UNSUPPORTEDCOLORARG?$AA@ 10072a44     d3dx8:d3dx8core.obj
 0002:00000b70       ??_C@_0CC@CJHJFPGG@Failed?5to?5add?5x?5file?5data?5object@ 10072b70     d3dx8:loadx.obj
 0002:00000b94       ??_C@_0CF@GGDPCOCC@Failed?5to?5create?5x?5file?5data?5obj@ 10072b94     d3dx8:loadx.obj
 0002:00000bbc       ??_C@_0P@MCKMEEL@Out?5of?5memory?$CB?$AA@ 10072bbc     d3dx8:loadx.obj
 0002:00000bcc       __real@3b808081            10072bcc     d3dx8:loadx.obj
 0002:00000bd0       __real@437f0000            10072bd0     d3dx8:loadx.obj
 0002:00000bd8       ??_C@_0EJI@NLHDPLPN@xof?50303txt?50032?5?5?5?5?5?5?5?5template@ 10072bd8     d3dx8:loadx.obj
 0002:00001070       ??_C@_0EJG@HENDBOJI@xof?50303txt?50032?5?5?5?5?5?5?5?5template@ 10073070     d3dx8:loadx.obj
 0002:00001508       ??_C@_0BC@DJALGNGF@DirectXFileCreate?$AA@ 10073508     d3dx8:loadx.obj
 0002:0000151c       ??_C@_0L@GIOIPPIK@d3dxof?4dll?$AA@ 1007351c     d3dx8:loadx.obj
 0002:00001528       ??_7CD3DXFont@@6B@         10073528     d3dx8:cd3dxfont.obj
 0002:0000154c       ??_7CD3DXSprite@@6B@       1007354c     d3dx8:cd3dxsprite.obj
 0002:0000156c       __real@bf000000            1007356c     d3dx8:cd3dxsprite.obj
 0002:00001570       ??_7CD3DXRenderToSurface@@6B@ 10073570     d3dx8:cd3dxrendertosurface.obj
 0002:0000158c       ??_7CD3DXRenderToEnvMap@@6B@ 1007358c     d3dx8:cd3dxrendertoenvmap.obj
 0002:000015b8       ??_C@_0BN@BDCKJMH@?$CFs?$CI?$CFd?$CJ?5?3?5?$CIAssembly?5Error?$CJ?5?$CFs?$AA@ 100735b8     d3dx8:cd3dxassembler.obj
 0002:000015d8       ??_C@_03KFHHDCHE@sat?$AA@  100735d8     d3dx8:cd3dxassembler.obj
 0002:000015dc       ??_C@_02FIPPPJOK@d8?$AA@   100735dc     d3dx8:cd3dxassembler.obj
 0002:000015e0       ??_C@_02PEEKLGOG@d4?$AA@   100735e0     d3dx8:cd3dxassembler.obj
 0002:000015e4       ??_C@_02KCBABBGA@d2?$AA@   100735e4     d3dx8:cd3dxassembler.obj
 0002:000015e8       ??_C@_02LHCMELHE@x2?$AA@   100735e8     d3dx8:cd3dxassembler.obj
 0002:000015ec       ??_C@_02OBHGOMPC@x4?$AA@   100735ec     d3dx8:cd3dxassembler.obj
 0002:000015f0       ??_C@_04GEPNNBKI@logp?$AA@ 100735f0     d3dx8:cd3dxassembler.obj
 0002:000015f8       ??_C@_04LNEKGJAK@expp?$AA@ 100735f8     d3dx8:cd3dxassembler.obj
 0002:00001600       ??_C@_04NHDIBMI@m3x2?$AA@  10073600     d3dx8:cd3dxassembler.obj
 0002:00001608       ??_C@_04BEGILAIJ@m3x3?$AA@ 10073608     d3dx8:cd3dxassembler.obj
 0002:00001610       ??_C@_04FLCJCGEO@m3x4?$AA@ 10073610     d3dx8:cd3dxassembler.obj
 0002:00001618       ??_C@_04IJLPIIDA@m4x3?$AA@ 10073618     d3dx8:cd3dxassembler.obj
 0002:00001620       ??_C@_04MGPOBOPH@m4x4?$AA@ 10073620     d3dx8:cd3dxassembler.obj
 0002:00001628       ??_C@_03NJFDAMGG@frc?$AA@  10073628     d3dx8:cd3dxassembler.obj
 0002:0000162c       ??_C@_03HHBLCKEM@dst?$AA@  1007362c     d3dx8:cd3dxassembler.obj
 0002:00001630       ??_C@_03KDBOCEAF@lit?$AA@  10073630     d3dx8:cd3dxassembler.obj
 0002:00001634       ??_C@_03MGHMBJCF@log?$AA@  10073634     d3dx8:cd3dxassembler.obj
 0002:00001638       ??_C@_03KHJOGHMM@exp?$AA@  10073638     d3dx8:cd3dxassembler.obj
 0002:0000163c       ??_C@_03PCCDGNNG@sge?$AA@  1007363c     d3dx8:cd3dxassembler.obj
 0002:00001640       ??_C@_03KNKPKBCH@slt?$AA@  10073640     d3dx8:cd3dxassembler.obj
 0002:00001644       ??_C@_03LJAEFNNE@max?$AA@  10073644     d3dx8:cd3dxassembler.obj
 0002:00001648       ??_C@_03KLIPLJLL@min?$AA@  10073648     d3dx8:cd3dxassembler.obj
 0002:0000164c       ??_C@_03HPBONGEK@rsq?$AA@  1007364c     d3dx8:cd3dxassembler.obj
 0002:00001650       ??_C@_03HKCDEEHL@rcp?$AA@  10073650     d3dx8:cd3dxassembler.obj
 0002:00001654       ??_C@_0L@IELIFMKH@texreg2rgb?$AA@ 10073654     d3dx8:cd3dxassembler.obj
 0002:00001660       ??_C@_06PPPBIMGK@texdp3?$AA@ 10073660     d3dx8:cd3dxassembler.obj
 0002:00001668       ??_C@_07NCIFLAPF@texbrdf?$AA@ 10073668     d3dx8:cd3dxassembler.obj
 0002:00001670       ??_C@_0N@FKGOHOIG@texm3x2depth?$AA@ 10073670     d3dx8:cd3dxassembler.obj
 0002:00001680       ??_C@_0N@KDLHKEAM@texm3x3vspec?$AA@ 10073680     d3dx8:cd3dxassembler.obj
 0002:00001690       ??_C@_0M@EJPNKOAD@texm3x3spec?$AA@ 10073690     d3dx8:cd3dxassembler.obj
 0002:0000169c       ??_C@_0M@MJBNLHJI@texm3x3diff?$AA@ 1007369c     d3dx8:cd3dxassembler.obj
 0002:000016a8       ??_C@_0L@DIAEELDK@texm3x3tex?$AA@ 100736a8     d3dx8:cd3dxassembler.obj
 0002:000016b4       ??_C@_0L@FGBICJOM@texm3x3pad?$AA@ 100736b4     d3dx8:cd3dxassembler.obj
 0002:000016c0       ??_C@_0L@FGEGCIK@texm3x2tex?$AA@ 100736c0     d3dx8:cd3dxassembler.obj
 0002:000016cc       ??_C@_0L@GLHIAAFM@texm3x2pad?$AA@ 100736cc     d3dx8:cd3dxassembler.obj
 0002:000016d8       ??_C@_09MCDLOMLJ@texreg2gb?$AA@ 100736d8     d3dx8:cd3dxassembler.obj
 0002:000016e4       ??_C@_09IMHEICFK@texreg2ar?$AA@ 100736e4     d3dx8:cd3dxassembler.obj
 0002:000016f0       ??_C@_07OKHFAMNG@texbeml?$AA@ 100736f0     d3dx8:cd3dxassembler.obj
 0002:000016f8       ??_C@_06OEEPMCPH@texbem?$AA@ 100736f8     d3dx8:cd3dxassembler.obj
 0002:00001700       ??_C@_03JDBMONBN@tex?$AA@  10073700     d3dx8:cd3dxassembler.obj
 0002:00001704       ??_C@_07KMHBLLCI@texkill?$AA@ 10073704     d3dx8:cd3dxassembler.obj
 0002:0000170c       ??_C@_08FDJGCBLL@texcoord?$AA@ 1007370c     d3dx8:cd3dxassembler.obj
 0002:00001718       ??_C@_03LEPADAIH@cnd?$AA@  10073718     d3dx8:cd3dxassembler.obj
 0002:0000171c       ??_C@_03NHABKNJA@lrp?$AA@  1007371c     d3dx8:cd3dxassembler.obj
 0002:00001720       ??_C@_03IFCENLBA@dp4?$AA@  10073720     d3dx8:cd3dxassembler.obj
 0002:00001724       ??_C@_03MKGFENNH@dp3?$AA@  10073724     d3dx8:cd3dxassembler.obj
 0002:00001728       ??_C@_03IMIFIBCN@mul?$AA@  10073728     d3dx8:cd3dxassembler.obj
 0002:0000172c       ??_C@_03FPHDAAIJ@mad?$AA@  1007372c     d3dx8:cd3dxassembler.obj
 0002:00001730       ??_C@_03KCMAIMAP@sub?$AA@  10073730     d3dx8:cd3dxassembler.obj
 0002:00001734       ??_C@_03BDGOHNNK@add?$AA@  10073734     d3dx8:cd3dxassembler.obj
 0002:00001738       ??_C@_03CNBJFNFA@mov?$AA@  10073738     d3dx8:cd3dxassembler.obj
 0002:0000173c       ??_C@_02ENMDKDPO@x8?$AA@   1007373c     d3dx8:cd3dxassembler.obj
 0002:00001740       ??_C@_03GJPGFFDI@nop?$AA@  10073740     d3dx8:cd3dxassembler.obj
 0002:00001744       ??_C@_0BC@OLOFEEHK@invalid?5mask?5?8?$CFs?8?$AA@ 10073744     d3dx8:cd3dxassembler.obj
 0002:00001758       ??_C@_0BF@HCOGMEGH@invalid?5swizzle?5?8?$CFs?8?$AA@ 10073758     d3dx8:cd3dxassembler.obj
 0002:00001770       ??_C@_0BK@LGANAEDG@invalid?5register?5?8?$CFs?$FL?$CFd?$FN?8?$AA@ 10073770     d3dx8:cd3dxassembler.obj
 0002:0000178c       ??_C@_0CB@OLJIFADM@invalid?5register?5?8?$CFs?$FLa0?4x?5?$CL?5?$CFd?$FN?8@ 1007378c     d3dx8:cd3dxassembler.obj
 0002:000017b0       ??_C@_0BG@CDEBKFJO@invalid?5register?5?8?$CFs?8?$AA@ 100737b0     d3dx8:cd3dxassembler.obj
 0002:000017c8       ??_C@_02JNOCDCKA@oT?$AA@   100737c8     d3dx8:cd3dxassembler.obj
 0002:000017cc       ??_C@_02NHCACAPB@oD?$AA@   100737cc     d3dx8:cd3dxassembler.obj
 0002:000017d0       ??_C@_01MCMALHOG@a?$AA@    100737d0     d3dx8:cd3dxassembler.obj
 0002:000017d4       ??_C@_04PFPHJOOC@oFog?$AA@ 100737d4     d3dx8:cd3dxassembler.obj
 0002:000017dc       ??_C@_04LOFIANGF@oPts?$AA@ 100737dc     d3dx8:cd3dxassembler.obj
 0002:000017e4       ??_C@_04KOCLEBPE@oPos?$AA@ 100737e4     d3dx8:cd3dxassembler.obj
 0002:000017ec       ??_C@_01PFHFFBPC@t?$AA@    100737ec     d3dx8:cd3dxassembler.obj
 0002:000017f0       ??_C@_01PAPGNFGE@c?$AA@    100737f0     d3dx8:cd3dxassembler.obj
 0002:000017f4       ??_C@_01KDCPPGHE@r?$AA@    100737f4     d3dx8:cd3dxassembler.obj
 0002:000017f8       ??_C@_01MHEDDDHA@v?$AA@    100737f8     d3dx8:cd3dxassembler.obj
 0002:000017fc       ??_C@_04EMPCMEAG@_sgn?$AA@ 100737fc     d3dx8:cd3dxassembler.obj
 0002:00001804       ??_C@_04KFCDACOJ@_bx2?$AA@ 10073804     d3dx8:cd3dxassembler.obj
 0002:0000180c       ??_C@_05FLDOPDPI@_bias?$AA@ 1007380c     d3dx8:cd3dxassembler.obj
 0002:00001814       ??_C@_0BN@JNLNGCLO@invalid?5destination?5register?$AA@ 10073814     d3dx8:cd3dxassembler.obj
 0002:00001834       ??_C@_0BD@NIJHOCFA@invalid?5write?5mask?$AA@ 10073834     d3dx8:cd3dxassembler.obj
 0002:00001848       ??_C@_0DK@HMEPGNMJ@source?5modifiers?5are?5not?5allowed@ 10073848     d3dx8:cd3dxassembler.obj
 0002:00001884       ??_C@_0BI@JILJCFIK@invalid?5source?5register?$AA@ 10073884     d3dx8:cd3dxassembler.obj
 0002:0000189c       ??_C@_0BA@PILANKE@invalid?5swizzle?$AA@ 1007389c     d3dx8:cd3dxassembler.obj
 0002:000018ac       ??_C@_0BB@DKNONOPK@invalid?5constant?$AA@ 100738ac     d3dx8:cd3dxassembler.obj
 0002:000018c0       ??_C@_03BHEEIFFN@def?$AA@  100738c0     d3dx8:cd3dxassembler.obj
 0002:000018c4       ??_C@_02FAFNGEII@ps?$AA@   100738c4     d3dx8:cd3dxassembler.obj
 0002:000018c8       ??_C@_02FENABIDK@vs?$AA@   100738c8     d3dx8:cd3dxassembler.obj
 0002:000018cc       ??_C@_0CL@POHKFIF@preprocessor?5directives?5are?5not?5@ 100738cc     d3dx8:cd3dxassembler.obj
 0002:000018f8       ??_C@_05IPCKHCMJ@?$CDline?$AA@ 100738f8     d3dx8:cd3dxassembler.obj
 0002:00001900       ??_C@_0BN@CFIOMDHG@Internal?5assembler?5error?$CB?5?$CFd?$AA@ 10073900     d3dx8:cd3dxassembler.obj
 0002:00001920       ??_C@_02NJPGOMH@?$CFf?$AA@ 10073920     d3dx8:cd3dxassembler.obj
 0002:00001924       ??_C@_0DB@DKAPLPGN@a0?4x?5can?5only?5appear?5once?5in?5an?5@ 10073924     d3dx8:cd3dxassembler.obj
 0002:00001958       ??_C@_0CF@GFHCMKJJ@illegal?5register?5in?5index?5expres@ 10073958     d3dx8:cd3dxassembler.obj
 0002:00001980       ??_C@_0N@MNJHOOI@syntax?5error?$AA@ 10073980     d3dx8:cd3dxassembler.obj
 0002:00001990       ??_C@_0CP@LILJCPPC@complement?5cannot?5be?5used?5with?5o@ 10073990     d3dx8:cd3dxassembler.obj
 0002:000019c0       ??_C@_0CL@DIIPPLJG@complement?5not?5supported?5in?5vert@ 100739c0     d3dx8:cd3dxassembler.obj
 0002:000019ec       ??_C@_0BA@HADFIBON@invalid?5version?$AA@ 100739ec     d3dx8:cd3dxassembler.obj
 0002:000019fc       ??_C@_0BE@CHCCDJIL@yacc?5stack?5overflow?$AA@ 100739fc     d3dx8:cd3dxassembler.obj
 0002:00001a10       ??_C@_0BF@KGBNOCOP@ValidateVertexShader?$AA@ 10073a10     d3dx8:cd3dxassembler.obj
 0002:00001a28       ??_C@_0BE@NEMHJEKI@ValidatePixelShader?$AA@ 10073a28     d3dx8:cd3dxassembler.obj
 0002:00001a3c       ??_C@_08MGNLGFIP@d3d8?4dll?$AA@ 10073a3c     d3dx8:cd3dxassembler.obj
 0002:00001a48       ??_C@_0CE@DCMOJBEO@D3DX8?5Shader?5Assembler?5Version?50@ 10073a48     d3dx8:cd3dxassembler.obj
 0002:00001a98       ?nibbleCount@CD3DXBitField256@@0QBKB 10073a98     d3dx8:createmesh.obj
 0002:00001af8       ??_7CPMSharedData@@6B@     10073af8     d3dx8:createmesh.obj
 0002:00001b00       __real@3ff0000000000000    10073b00     d3dx8:createmesh.obj
 0002:00001b08       __real@0000000000000000    10073b08     d3dx8:createmesh.obj
 0002:00001b10       ??_7?$GXTri3Mesh@G$00$0PPPP@@@6B@ 10073b10     d3dx8:createmesh.obj
 0002:00001b80       ??_7?$GXTri3Mesh@I$0A@$0?0@@6B@ 10073b80     d3dx8:createmesh.obj
 0002:00001bec       __real@3c23d70a            10073bec     d3dx8:createmesh.obj
 0002:00001bf0       __real@39d1b717            10073bf0     d3dx8:createmesh.obj
 0002:00001bf8       ??_C@_0HJ@LPIJJGIF@ID3DXMeshOptimize?3?5Cannot?5do?5Att@ 10073bf8     d3dx8:createmesh.obj
 0002:00001c74       __real@358637bd            10073c74     d3dx8:createmesh.obj
 0002:00001c78       ??_7CD3DXSkinMesh@@6B@     10073c78     d3dx8:createmesh.obj
 0002:00001ce8       ??_7?$GXHalfEdgePMesh@G$00$0PPPP@@@6B@ 10073ce8     d3dx8:createmesh.obj
 0002:00001d64       ??_C@_03BCGNCLPC@pmx?$AA@  10073d64     d3dx8:createmesh.obj
 0002:00001d68       ??_7?$GXHalfEdgePMesh@I$0A@$0?0@@6B@ 10073d68     d3dx8:createmesh.obj
 0002:00001de8       ??_7?$GXSimplifyMesh@I$0A@$0?0@@6B@ 10073de8     d3dx8:createmesh.obj
 0002:00001e30       ??_7?$GXSimplifyMesh@G$00$0PPPP@@@6B@ 10073e30     d3dx8:createmesh.obj
 0002:00001e78       __real@3ff3333333333333    10073e78     d3dx8:createmesh.obj
 0002:00001e90       ??_7CD3DXBuffer@@6B@       10073e90     d3dx8:cd3dxbuffer.obj
 0002:00001ea4       __real@3f99999a            10073ea4     d3dx8:cd3dxbuffer.obj
 0002:00001ea8       ??_7CD3DXStringBuffer@@6B@ 10073ea8     d3dx8:cd3dxbuffer.obj
 0002:00001ebc       _IID_ID3DXEffect           10073ebc     d3dx8:init.obj
 0002:00001ecc       _IID_ID3DXTechnique        10073ecc     d3dx8:init.obj
 0002:00001edc       _IID_ID3DXSkinMesh         10073edc     d3dx8:init.obj
 0002:00001eec       _IID_ID3DXSPMesh           10073eec     d3dx8:init.obj
 0002:00001efc       _IID_ID3DXPMesh            10073efc     d3dx8:init.obj
 0002:00001f0c       _IID_ID3DXMesh             10073f0c     d3dx8:init.obj
 0002:00001f1c       _IID_ID3DXBaseMesh         10073f1c     d3dx8:init.obj
 0002:00001f2c       _TID_DXFILEHeader          10073f2c     d3dx8:init.obj
 0002:00001f3c       _IID_IDirectXFileBinary    10073f3c     d3dx8:init.obj
 0002:00001f4c       _IID_IDirectXFileDataReference 10073f4c     d3dx8:init.obj
 0002:00001f5c       _IID_IDirectXFileData      10073f5c     d3dx8:init.obj
 0002:00001f6c       _IID_IDirectXFileObject    10073f6c     d3dx8:init.obj
 0002:00001f7c       _IID_IDirectXFileSaveObject 10073f7c     d3dx8:init.obj
 0002:00001f8c       _IID_IDirectXFileEnumObject 10073f8c     d3dx8:init.obj
 0002:00001f9c       _IID_IDirectXFile          10073f9c     d3dx8:init.obj
 0002:00001fac       _CLSID_CDirectXFile        10073fac     d3dx8:init.obj
 0002:00001fbc       _IID_ID3DXRenderToEnvMap   10073fbc     d3dx8:init.obj
 0002:00001fcc       _IID_ID3DXRenderToSurface  10073fcc     d3dx8:init.obj
 0002:00001fdc       _IID_ID3DXSprite           10073fdc     d3dx8:init.obj
 0002:00001fec       _IID_ID3DXFont             10073fec     d3dx8:init.obj
 0002:00001ffc       _IID_ID3DXBuffer           10073ffc     d3dx8:init.obj
 0002:0000200c       _IID_ID3DXMatrixStack      1007400c     d3dx8:init.obj
 0002:0000201c       _IID_IDirect3DSwapChain8   1007401c     d3dx8:init.obj
 0002:0000202c       _IID_IDirect3DVolume8      1007402c     d3dx8:init.obj
 0002:0000203c       _IID_IDirect3DSurface8     1007403c     d3dx8:init.obj
 0002:0000204c       _IID_IDirect3DIndexBuffer8 1007404c     d3dx8:init.obj
 0002:0000205c       _IID_IDirect3DVertexBuffer8 1007405c     d3dx8:init.obj
 0002:0000206c       _IID_IDirect3DVolumeTexture8 1007406c     d3dx8:init.obj
 0002:0000207c       _IID_IDirect3DCubeTexture8 1007407c     d3dx8:init.obj
 0002:0000208c       _IID_IDirect3DTexture8     1007408c     d3dx8:init.obj
 0002:0000209c       _IID_IDirect3DBaseTexture8 1007409c     d3dx8:init.obj
 0002:000020ac       _IID_IDirect3DResource8    100740ac     d3dx8:init.obj
 0002:000020bc       _IID_IDirect3DDevice8      100740bc     d3dx8:init.obj
 0002:000020cc       _IID_IDirect3D8            100740cc     d3dx8:init.obj
 0002:000020dc       __real@3e000000            100740dc     d3dx8:cd3dxblt.obj
 0002:000020e0       ??_C@_0L@JBGDLKBH@read?5error?$AA@ 100740e0     d3dx8:cd3dximage.obj
 0002:000020f0       __real@3fe0000000000000    100740f0     d3dx8:cd3dximage.obj
 0002:000020f8       __real@406fe00000000000    100740f8     d3dx8:cd3dximage.obj
 0002:00002100       __real@3f70101010101010    10074100     d3dx8:cd3dximage.obj
 0002:00002108       __real@3eb0c6f7a0b5ed8d    10074108     d3dx8:cd3dximage.obj
 0002:00002110       __real@400199999999999a    10074110     d3dx8:cd3dximage.obj
 0002:00002118       ??_C@_05JPCDEKMM@1?40?45?$AA@ 10074118     d3dx8:cd3dximage.obj
 0002:00002120       ??_7CD3DXCodec@@6B@        10074120     d3dx8:cd3dxcodec.obj
 0002:0000212c       __real@3c000000            1007412c     d3dx8:cd3dxcodec.obj
 0002:00002130       __real@3c820821            10074130     d3dx8:cd3dxcodec.obj
 0002:00002134       __real@3d800000            10074134     d3dx8:cd3dxcodec.obj
 0002:00002138       __real@38000000            10074138     d3dx8:cd3dxcodec.obj
 0002:0000213c       __real@3b000000            1007413c     d3dx8:cd3dxcodec.obj
 0002:00002140       __real@3a800000            10074140     d3dx8:cd3dxcodec.obj
 0002:00002144       __real@427c0000            10074144     d3dx8:cd3dxcodec.obj
 0002:00002148       __real@41f80000            10074148     d3dx8:cd3dxcodec.obj
 0002:0000214c       __real@41700000            1007414c     d3dx8:cd3dxcodec.obj
 0002:00002150       __real@40e00000            10074150     d3dx8:cd3dxcodec.obj
 0002:00002154       __real@7f7fffff            10074154     d3dx8:cd3dxcodec.obj
 0002:00002158       __real@43000000            10074158     d3dx8:cd3dxcodec.obj
 0002:0000215c       __real@41800000            1007415c     d3dx8:cd3dxcodec.obj
 0002:00002160       __real@47000000            10074160     d3dx8:cd3dxcodec.obj
 0002:00002164       __real@44800000            10074164     d3dx8:cd3dxcodec.obj
 0002:00002168       __real@44000000            10074168     d3dx8:cd3dxcodec.obj
 0002:0000216c       __real@3d042108            1007416c     d3dx8:cd3dxcodec.obj
 0002:00002170       __real@3d888889            10074170     d3dx8:cd3dxcodec.obj
 0002:00002174       __real@3eaaaaab            10074174     d3dx8:cd3dxcodec.obj
 0002:00002178       __real@3e124925            10074178     d3dx8:cd3dxcodec.obj
 0002:0000217c       ??_7CD3DXCodecYUV@@6B@     1007417c     d3dx8:cd3dxcodec.obj
 0002:00002188       __real@4191b646            10074188     d3dx8:cd3dxcodec.obj
 0002:0000218c       __real@42bb926f            1007418c     d3dx8:cd3dxcodec.obj
 0002:00002190       __real@42173021            10074190     d3dx8:cd3dxcodec.obj
 0002:00002194       __real@429467f0            10074194     d3dx8:cd3dxcodec.obj
 0002:00002198       __real@42e00000            10074198     d3dx8:cd3dxcodec.obj
 0002:0000219c       __real@43008d91            1007419c     d3dx8:cd3dxcodec.obj
 0002:000021a0       __real@41c7ba5e            100741a0     d3dx8:cd3dxcodec.obj
 0002:000021a4       __real@4282f646            100741a4     d3dx8:cd3dxcodec.obj
 0002:000021a8       __real@3c019bec            100741a8     d3dx8:cd3dxcodec.obj
 0002:000021ac       __real@3b50ef9c            100741ac     d3dx8:cd3dxcodec.obj
 0002:000021b0       __real@3ac95e58            100741b0     d3dx8:cd3dxcodec.obj
 0002:000021b4       __real@3b95a025            100741b4     d3dx8:cd3dxcodec.obj
 0002:000021b8       __real@3bcd17b6            100741b8     d3dx8:cd3dxcodec.obj
 0002:000021bc       ??_7CD3DXCodecDXT@@6B@     100741bc     d3dx8:cd3dxcodec.obj
 0002:000021c8       ??_7CD3DXCodec_R8G8B8@@6B@ 100741c8     d3dx8:cd3dxcodec.obj
 0002:000021d4       ??_7CD3DXCodec_A8R8G8B8@@6B@ 100741d4     d3dx8:cd3dxcodec.obj
 0002:000021e0       ??_7CD3DXCodec_X8R8G8B8@@6B@ 100741e0     d3dx8:cd3dxcodec.obj
 0002:000021ec       ??_7CD3DXCodec_R5G6B5@@6B@ 100741ec     d3dx8:cd3dxcodec.obj
 0002:000021f8       ??_7CD3DXCodec_X1R5G5B5@@6B@ 100741f8     d3dx8:cd3dxcodec.obj
 0002:00002204       ??_7CD3DXCodec_A1R5G5B5@@6B@ 10074204     d3dx8:cd3dxcodec.obj
 0002:00002210       ??_7CD3DXCodec_A4R4G4B4@@6B@ 10074210     d3dx8:cd3dxcodec.obj
 0002:0000221c       ??_7CD3DXCodec_R3G3B2@@6B@ 1007421c     d3dx8:cd3dxcodec.obj
 0002:00002228       ??_7CD3DXCodec_A8@@6B@     10074228     d3dx8:cd3dxcodec.obj
 0002:00002234       ??_7CD3DXCodec_A8R3G3B2@@6B@ 10074234     d3dx8:cd3dxcodec.obj
 0002:00002240       ??_7CD3DXCodec_X4R4G4B4@@6B@ 10074240     d3dx8:cd3dxcodec.obj
 0002:0000224c       ??_7CD3DXCodec_A8P8@@6B@   1007424c     d3dx8:cd3dxcodec.obj
 0002:00002258       ??_7CD3DXCodec_P8@@6B@     10074258     d3dx8:cd3dxcodec.obj
 0002:00002264       ??_7CD3DXCodec_L8@@6B@     10074264     d3dx8:cd3dxcodec.obj
 0002:00002270       ??_7CD3DXCodec_A8L8@@6B@   10074270     d3dx8:cd3dxcodec.obj
 0002:0000227c       ??_7CD3DXCodec_A4L4@@6B@   1007427c     d3dx8:cd3dxcodec.obj
 0002:00002288       ??_7CD3DXCodec_V8U8@@6B@   10074288     d3dx8:cd3dxcodec.obj
 0002:00002294       ??_7CD3DXCodec_L6V5U5@@6B@ 10074294     d3dx8:cd3dxcodec.obj
 0002:000022a0       ??_7CD3DXCodec_X8L8V8U8@@6B@ 100742a0     d3dx8:cd3dxcodec.obj
 0002:000022ac       ??_7CD3DXCodec_Q8W8V8U8@@6B@ 100742ac     d3dx8:cd3dxcodec.obj
 0002:000022b8       ??_7CD3DXCodec_V16U16@@6B@ 100742b8     d3dx8:cd3dxcodec.obj
 0002:000022c4       ??_7CD3DXCodec_W11V11U10@@6B@ 100742c4     d3dx8:cd3dxcodec.obj
 0002:000022d0       ??_7CD3DXCodec_UYVY@@6B@   100742d0     d3dx8:cd3dxcodec.obj
 0002:000022dc       ??_7CD3DXCodec_YUY2@@6B@   100742dc     d3dx8:cd3dxcodec.obj
 0002:000022e8       ??_7CD3DXCodec_DXT1@@6B@   100742e8     d3dx8:cd3dxcodec.obj
 0002:000022f4       ??_7CD3DXCodec_DXT2@@6B@   100742f4     d3dx8:cd3dxcodec.obj
 0002:00002300       ??_7CD3DXCodec_DXT3@@6B@   10074300     d3dx8:cd3dxcodec.obj
 0002:0000230c       ??_7CD3DXCodec_DXT4@@6B@   1007430c     d3dx8:cd3dxcodec.obj
 0002:00002318       ??_7CD3DXCodec_DXT5@@6B@   10074318     d3dx8:cd3dxcodec.obj
 0002:0000250c       ??_C@_0CL@OCGBAKPF@Application?5transferred?5too?5many@ 1007450c     d3dx8:jerror.obj
 0002:00002538       ??_C@_0CL@BAKCGOKJ@Invalid?5SOS?5parameters?5for?5seque@ 10074538     d3dx8:jerror.obj
 0002:00002564       ??_C@_0DI@NFMBADOH@Corrupt?5JPEG?5data?3?5found?5marker?5@ 10074564     d3dx8:jerror.obj
 0002:0000259c       ??_C@_0BL@DPFPFMLM@Premature?5end?5of?5JPEG?5file?$AA@ 1007459c     d3dx8:jerror.obj
 0002:000025b8       ??_C@_0CO@ODCCEDLN@Warning?3?5unknown?5JFIF?5revision?5n@ 100745b8     d3dx8:jerror.obj
 0002:000025e8       ??_C@_0CE@PBLDOPKB@Corrupt?5JPEG?5data?3?5bad?5Huffman?5c@ 100745e8     d3dx8:jerror.obj
 0002:0000260c       ??_C@_0DB@PGMEPGHN@Corrupt?5JPEG?5data?3?5premature?5end@ 1007460c     d3dx8:jerror.obj
 0002:00002640       ??_C@_0DM@PCOGCKJB@Corrupt?5JPEG?5data?3?5?$CFu?5extraneous@ 10074640     d3dx8:jerror.obj
 0002:00002680       ??_C@_0EC@CBCJOINE@Inconsistent?5progression?5sequenc@ 10074680     d3dx8:jerror.obj
 0002:000026c4       ??_C@_0CG@KEGHCDOM@Unknown?5Adobe?5color?5transform?5co@ 100746c4     d3dx8:jerror.obj
 0002:000026ec       ??_C@_0BH@LJLGPEFF@Obtained?5XMS?5handle?5?$CFu?$AA@ 100746ec     d3dx8:jerror.obj
 0002:00002704       ??_C@_0BE@FOGGKKAO@Freed?5XMS?5handle?5?$CFu?$AA@ 10074704     d3dx8:jerror.obj
 0002:00002718       ??_C@_0DE@EEJCDLOO@Unrecognized?5component?5IDs?5?$CFd?5?$CFd@ 10074718     d3dx8:jerror.obj
 0002:0000274c       ??_C@_0BJ@GOCABEP@Opened?5temporary?5file?5?$CFs?$AA@ 1007474c     d3dx8:jerror.obj
 0002:00002768       ??_C@_0BJ@KDCGAOJB@Closed?5temporary?5file?5?$CFs?$AA@ 10074768     d3dx8:jerror.obj
 0002:00002784       ??_C@_0BN@GAMIJLDC@?5?5Ss?$DN?$CFd?0?5Se?$DN?$CFd?0?5Ah?$DN?$CFd?0?5Al?$DN?$CFd?$AA@ 10074784     d3dx8:jerror.obj
 0002:000027a4       ??_C@_0BO@CDEKFGLC@?5?5?5?5Component?5?$CFd?3?5dc?$DN?$CFd?5ac?$DN?$CFd?$AA@ 100747a4     d3dx8:jerror.obj
 0002:000027c4       ??_C@_0BN@BLOOHNC@Start?5Of?5Scan?3?5?$CFd?5components?$AA@ 100747c4     d3dx8:jerror.obj
 0002:000027e4       ??_C@_0P@JLCHJELA@Start?5of?5Image?$AA@ 100747e4     d3dx8:jerror.obj
 0002:000027f4       ??_C@_0BP@EDCAMHHE@?5?5?5?5Component?5?$CFd?3?5?$CFdhx?$CFdv?5q?$DN?$CFd?$AA@ 100747f4     d3dx8:jerror.obj
 0002:00002814       ??_C@_0DK@DMINKOGN@Start?5Of?5Frame?50x?$CF02x?3?5width?$DN?$CFu?0@ 10074814     d3dx8:jerror.obj
 0002:00002850       ??_C@_0DJ@PCBCLFML@Smoothing?5not?5supported?5with?5non@ 10074850     d3dx8:jerror.obj
 0002:0000288c       ??_C@_05LLAPAOG@RST?$CFd?$AA@ 1007488c     d3dx8:jerror.obj
 0002:00002894       ??_C@_0CF@NIMOLBCP@At?5marker?50x?$CF02x?0?5recovery?5actio@ 10074894     d3dx8:jerror.obj
 0002:000028bc       ??_C@_0CE@FDPBEAOO@Selected?5?$CFd?5colors?5for?5quantizat@ 100748bc     d3dx8:jerror.obj
 0002:000028e0       ??_C@_0BI@NEIBNACE@Quantizing?5to?5?$CFd?5colors?$AA@ 100748e0     d3dx8:jerror.obj
 0002:000028f8       ??_C@_0CD@CNNAOOFA@Quantizing?5to?5?$CFd?5?$DN?5?$CFd?$CK?$CFd?$CK?$CFd?5colo@ 100748f8     d3dx8:jerror.obj
 0002:0000291c       ??_C@_0CI@GHPOCOCL@?5?5?5?5?5?5?5?5?$CF4u?5?$CF4u?5?$CF4u?5?$CF4u?5?$CF4u?5?$CF4u?5@ 1007491c     d3dx8:jerror.obj
 0002:00002944       ??_C@_0BJ@COPODLDN@Unexpected?5marker?50x?$CF02x?$AA@ 10074944     d3dx8:jerror.obj
 0002:00002960       ??_C@_0CC@KHCAAFMC@Skipping?5marker?50x?$CF02x?0?5length?5?$CF@ 10074960     d3dx8:jerror.obj
 0002:00002984       ??_C@_0CB@BADBMAAB@?5?5?5?5with?5?$CFd?5x?5?$CFd?5thumbnail?5image@ 10074984     d3dx8:jerror.obj
 0002:000029a8       ??_C@_0CL@BJMGIDLN@Unknown?5JFIF?5minor?5revision?5numb@ 100749a8     d3dx8:jerror.obj
 0002:000029d4       ??_C@_0DM@JLHNPIBE@Warning?3?5thumbnail?5image?5size?5do@ 100749d4     d3dx8:jerror.obj
 0002:00002a10       ??_C@_0CE@MKDBBMLI@JFIF?5APP0?5marker?0?5density?5?$CFdx?$CFd?5@ 10074a10     d3dx8:jerror.obj
 0002:00002a34       ??_C@_0CI@FKGPAJC@?5?5?5?5?5?5?5?5?$CF3d?5?$CF3d?5?$CF3d?5?$CF3d?5?$CF3d?5?$CF3d?5@ 10074a34     d3dx8:jerror.obj
 0002:00002a5c       ??_C@_0N@HJHFKELG@End?5Of?5Image?$AA@ 10074a5c     d3dx8:jerror.obj
 0002:00002a6c       ??_C@_0BH@GIPOLIGC@Obtained?5EMS?5handle?5?$CFu?$AA@ 10074a6c     d3dx8:jerror.obj
 0002:00002a84       ??_C@_0BE@IPCOOGDJ@Freed?5EMS?5handle?5?$CFu?$AA@ 10074a84     d3dx8:jerror.obj
 0002:00002a98       ??_C@_0BL@EMFIKBEK@Define?5Restart?5Interval?5?$CFu?$AA@ 10074a98     d3dx8:jerror.obj
 0002:00002ab4       ??_C@_0CL@KLDOJIKN@Define?5Quantization?5Table?5?$CFd?5?5pr@ 10074ab4     d3dx8:jerror.obj
 0002:00002ae0       ??_C@_0BM@MDIEILCE@Define?5Huffman?5Table?50x?$CF02x?$AA@ 10074ae0     d3dx8:jerror.obj
 0002:00002afc       ??_C@_0CH@KIJGKPAA@Define?5Arithmetic?5Table?50x?$CF02x?3?5@ 10074afc     d3dx8:jerror.obj
 0002:00002b24       ??_C@_0CM@CAEPHFAA@Unknown?5APP14?5marker?5?$CInot?5Adobe?$CJ@ 10074b24     d3dx8:jerror.obj
 0002:00002b50       ??_C@_0CK@HCPFFNKJ@Unknown?5APP0?5marker?5?$CInot?5JFIF?$CJ?0?5@ 10074b50     d3dx8:jerror.obj
 0002:00002b80       ??_C@_0EC@EHPKAOHA@Adobe?5APP14?5marker?3?5version?5?$CFd?0?5@ 10074b80     d3dx8:jerror.obj
 0002:00002bc4       ??_C@_0DO@EGLODMBB@Caution?3?5quantization?5tables?5are@ 10074bc4     d3dx8:jerror.obj
 0002:00002c04       ??_C@_0N@GJOMDPHN@6a?5?57?9Feb?996?$AA@ 10074c04     d3dx8:jerror.obj
 0002:00002c14       ??_C@_0CD@JFDHJBKK@Copyright?5?$CIC?$CJ?51996?0?5Thomas?5G?4?5La@ 10074c14     d3dx8:jerror.obj
 0002:00002c38       ??_C@_0BE@FDPDCBIN@Write?5to?5XMS?5failed?$AA@ 10074c38     d3dx8:jerror.obj
 0002:00002c4c       ??_C@_0BF@EKLGFGNM@Read?5from?5XMS?5failed?$AA@ 10074c4c     d3dx8:jerror.obj
 0002:00002c64       ??_C@_0CH@LJLHCCHC@Image?5too?5wide?5for?5this?5implemen@ 10074c64     d3dx8:jerror.obj
 0002:00002c8c       ??_C@_0CD@GCLFJCHC@Virtual?5array?5controller?5messed?5@ 10074c8c     d3dx8:jerror.obj
 0002:00002cb0       ??_C@_0BP@BPKOBOIP@Unsupported?5marker?5type?50x?$CF02x?$AA@ 10074cb0     d3dx8:jerror.obj
 0002:00002cd0       ??_C@_0CK@EPADOAKC@Application?5transferred?5too?5few?5@ 10074cd0     d3dx8:jerror.obj
 0002:00002cfc       ??_C@_0DG@KALDLIJB@Write?5failed?5on?5temporary?5file?5?9@ 10074cfc     d3dx8:jerror.obj
 0002:00002d34       ??_C@_0BO@GOBJOAAI@Seek?5failed?5on?5temporary?5file?$AA@ 10074d34     d3dx8:jerror.obj
 0002:00002d54       ??_C@_0BO@EEPJGHHI@Read?5failed?5on?5temporary?5file?$AA@ 10074d54     d3dx8:jerror.obj
 0002:00002d74       ??_C@_0CD@POKNOPOF@Failed?5to?5create?5temporary?5file?5@ 10074d74     d3dx8:jerror.obj
 0002:00002d98       ??_C@_0CM@HONLBDPH@Invalid?5JPEG?5file?5structure?3?5SOS@ 10074d98     d3dx8:jerror.obj
 0002:00002dc4       ??_C@_0CN@HGJCMLNE@Invalid?5JPEG?5file?5structure?3?5two@ 10074dc4     d3dx8:jerror.obj
 0002:00002df4       ??_C@_0CK@HMKECJK@Unsupported?5JPEG?5process?3?5SOF?5ty@ 10074df4     d3dx8:jerror.obj
 0002:00002e20       ??_C@_0DA@GJIJGINK@Invalid?5JPEG?5file?5structure?3?5mis@ 10074e20     d3dx8:jerror.obj
 0002:00002e50       ??_C@_0CN@IHJJJAFJ@Invalid?5JPEG?5file?5structure?3?5two@ 10074e50     d3dx8:jerror.obj
 0002:00002e80       ??_C@_0CH@NHMNHHIB@Cannot?5quantize?5to?5more?5than?5?$CFd?5@ 10074e80     d3dx8:jerror.obj
 0002:00002ea8       ??_C@_0CI@PLMPLCNO@Cannot?5quantize?5to?5fewer?5than?5?$CFd@ 10074ea8     d3dx8:jerror.obj
 0002:00002ed0       ??_C@_0CO@HPDBAEEA@Cannot?5quantize?5more?5than?5?$CFd?5col@ 10074ed0     d3dx8:jerror.obj
 0002:00002f00       ??_C@_0BO@DJPLELIB@Insufficient?5memory?5?$CIcase?5?$CFd?$CJ?$AA@ 10074f00     d3dx8:jerror.obj
 0002:00002f20       ??_C@_0CL@GNLFDFCL@Not?5a?5JPEG?5file?3?5starts?5with?50x?$CF@ 10074f20     d3dx8:jerror.obj
 0002:00002f4c       ??_C@_0CK@CCHKIENB@Quantization?5table?50x?$CF02x?5was?5no@ 10074f4c     d3dx8:jerror.obj
 0002:00002f78       ??_C@_0CC@BKPLBDLJ@JPEG?5datastream?5contains?5no?5imag@ 10074f78     d3dx8:jerror.obj
 0002:00002f9c       ??_C@_0CF@BKANFCCL@Huffman?5table?50x?$CF02x?5was?5not?5def@ 10074f9c     d3dx8:jerror.obj
 0002:00002fc4       ??_C@_0BM@HJHFKLAF@Backing?5store?5not?5supported?$AA@ 10074fc4     d3dx8:jerror.obj
 0002:00002fe0       ??_C@_0CO@BEHINNOI@Requested?5feature?5was?5omitted?5at@ 10074fe0     d3dx8:jerror.obj
 0002:00003010       ??_C@_0BE@EOAAHHJ@Not?5implemented?5yet?$AA@ 10075010     d3dx8:jerror.obj
 0002:00003024       ??_C@_0CH@EFBBPPCK@Invalid?5color?5quantization?5mode?5@ 10075024     d3dx8:jerror.obj
 0002:0000304c       ??_C@_0CH@NIBDNILP@Scan?5script?5does?5not?5transmit?5al@ 1007504c     d3dx8:jerror.obj
 0002:00003074       ??_C@_0DO@OPNPKGO@Cannot?5transcode?5due?5to?5multiple@ 10075074     d3dx8:jerror.obj
 0002:000030b4       ??_C@_0BM@KEKMMNGA@Premature?5end?5of?5input?5file?$AA@ 100750b4     d3dx8:jerror.obj
 0002:000030d0       ??_C@_0BB@JJAIKFBB@Empty?5input?5file?$AA@ 100750d0     d3dx8:jerror.obj
 0002:000030e4       ??_C@_0CP@EKFPGPNP@Maximum?5supported?5image?5dimensio@ 100750e4     d3dx8:jerror.obj
 0002:00003114       ??_C@_0CB@LFBMFPHI@Missing?5Huffman?5code?5table?5entry@ 10075114     d3dx8:jerror.obj
 0002:00003138       ??_C@_0CB@LLDOGNPJ@Huffman?5code?5size?5table?5overflow@ 10075138     d3dx8:jerror.obj
 0002:0000315c       ??_C@_0CI@EKDDDHFF@Fractional?5sampling?5not?5implemen@ 1007515c     d3dx8:jerror.obj
 0002:00003184       ??_C@_0CP@IDOBLGGD@Output?5file?5write?5error?5?9?9?9?5out?5@ 10075184     d3dx8:jerror.obj
 0002:000031b4       ??_C@_0BG@BALCKDNL@Input?5file?5read?5error?$AA@ 100751b4     d3dx8:jerror.obj
 0002:000031cc       ??_C@_0CB@DMGINPNE@Didn?8t?5expect?5more?5than?5one?5scan@ 100751cc     d3dx8:jerror.obj
 0002:000031f0       ??_C@_0BE@DGJBKIEB@Write?5to?5EMS?5failed?$AA@ 100751f0     d3dx8:jerror.obj
 0002:00003204       ??_C@_0BF@CPNENPBA@Read?5from?5EMS?5failed?$AA@ 10075204     d3dx8:jerror.obj
 0002:0000321c       ??_C@_0CF@DAGGEAPM@Empty?5JPEG?5image?5?$CIDNL?5not?5suppor@ 1007521c     d3dx8:jerror.obj
 0002:00003244       ??_C@_0BD@DIMECAOP@Bogus?5DQT?5index?5?$CFd?$AA@ 10075244     d3dx8:jerror.obj
 0002:00003258       ??_C@_0BD@KJHFPHIC@Bogus?5DHT?5index?5?$CFd?$AA@ 10075258     d3dx8:jerror.obj
 0002:0000326c       ??_C@_0BB@GDNEPMHL@Bogus?5DHT?5counts?$AA@ 1007526c     d3dx8:jerror.obj
 0002:00003280       ??_C@_0BF@CLIOOJFM@Bogus?5DAC?5value?50x?$CFx?$AA@ 10075280     d3dx8:jerror.obj
 0002:00003298       ??_C@_0BD@LDBBBMFL@Bogus?5DAC?5index?5?$CFd?$AA@ 10075298     d3dx8:jerror.obj
 0002:000032ac       ??_C@_0CF@JDLOPNGO@Unsupported?5color?5conversion?5req@ 100752ac     d3dx8:jerror.obj
 0002:000032d4       ??_C@_0CG@BEBDNOCG@Too?5many?5color?5components?3?5?$CFd?0?5m@ 100752d4     d3dx8:jerror.obj
 0002:000032fc       ??_C@_0CF@LAEFHNAH@CCIR601?5sampling?5not?5implemented@ 100752fc     d3dx8:jerror.obj
 0002:00003324       ??_C@_0BM@PKHCPJDH@Suspension?5not?5allowed?5here?$AA@ 10075324     d3dx8:jerror.obj
 0002:00003340       ??_C@_0CL@JKHIPJLJ@Buffer?5passed?5to?5JPEG?5library?5is@ 10075340     d3dx8:jerror.obj
 0002:0000336c       ??_C@_0BL@CBOEEPLK@Bogus?5virtual?5array?5access?$AA@ 1007536c     d3dx8:jerror.obj
 0002:00003388       ??_C@_0EN@DKAEGIBH@JPEG?5parameter?5struct?5mismatch?3?5@ 10075388     d3dx8:jerror.obj
 0002:000033d8       ??_C@_0CK@BAMFIBMM@Improper?5call?5to?5JPEG?5library?5in@ 100753d8     d3dx8:jerror.obj
 0002:00003404       ??_C@_0CA@MJDDICLK@Invalid?5scan?5script?5at?5entry?5?$CFd?$AA@ 10075404     d3dx8:jerror.obj
 0002:00003424       ??_C@_0BH@HMMHPOPE@Bogus?5sampling?5factors?$AA@ 10075424     d3dx8:jerror.obj
 0002:0000343c       ??_C@_0DH@HIKEGPKP@Invalid?5progressive?5parameters?5a@ 1007543c     d3dx8:jerror.obj
 0002:00003474       ??_C@_0DH@LNGGEGOL@Invalid?5progressive?5parameters?5S@ 10075474     d3dx8:jerror.obj
 0002:000034ac       ??_C@_0CD@LDBDNLHK@Unsupported?5JPEG?5data?5precision?5@ 100754ac     d3dx8:jerror.obj
 0002:000034d0       ??_C@_0BM@OEMICEFD@Invalid?5memory?5pool?5code?5?$CFd?$AA@ 100754d0     d3dx8:jerror.obj
 0002:000034ec       ??_C@_0DA@HLEOHNPA@Sampling?5factors?5too?5large?5for?5i@ 100754ec     d3dx8:jerror.obj
 0002:0000351c       ??_C@_0DN@ELFKFKL@Wrong?5JPEG?5library?5version?3?5libr@ 1007551c     d3dx8:jerror.obj
 0002:0000355c       ??_C@_0BE@OGLAEMOG@Bogus?5marker?5length?$AA@ 1007555c     d3dx8:jerror.obj
 0002:00003570       ??_C@_0BG@NEGIHEMC@Bogus?5JPEG?5colorspace?$AA@ 10075570     d3dx8:jerror.obj
 0002:00003588       ??_C@_0BH@BGDIGLHC@Bogus?5input?5colorspace?$AA@ 10075588     d3dx8:jerror.obj
 0002:000035a0       ??_C@_0CI@MBJANLAP@IDCT?5output?5block?5size?5?$CFd?5not?5su@ 100755a0     d3dx8:jerror.obj
 0002:000035c8       ??_C@_0BP@ONFLCDHG@Invalid?5component?5ID?5?$CFd?5in?5SOS?$AA@ 100755c8     d3dx8:jerror.obj
 0002:000035e8       ??_C@_0BK@DKALDNKG@Bogus?5buffer?5control?5mode?$AA@ 100755e8     d3dx8:jerror.obj
 0002:00003604       ??_C@_0CF@DENLILGA@MAX_ALLOC_CHUNK?5is?5wrong?0?5please@ 10075604     d3dx8:jerror.obj
 0002:0000362c       ??_C@_0CA@FDMPGPNI@ALIGN_TYPE?5is?5wrong?0?5please?5fix?$AA@ 1007562c     d3dx8:jerror.obj
 0002:0000364c       ??_C@_0DJ@KONAFFHE@Sorry?0?5there?5are?5legal?5restricti@ 1007564c     d3dx8:jerror.obj
 0002:00003688       ??_C@_0BG@MIBALFBH@Bogus?5message?5code?5?$CFd?$AA@ 10075688     d3dx8:jerror.obj
 0002:0000372c       ??_C@_0BD@LBMCPKOE@zlib?5version?5error?$AA@ 1007572c     d3dx8:pngread.obj
 0002:00003740       ??_C@_0BC@MCPIPOGP@zlib?5memory?5error?$AA@ 10075740     d3dx8:pngread.obj
 0002:00003754       ??_C@_0BD@CPDHIJBA@Unknown?5zlib?5error?$AA@ 10075754     d3dx8:pngread.obj
 0002:00003768       ??_C@_05HBMFIKCP@1?41?43?$AA@ 10075768     d3dx8:pngread.obj
 0002:00003770       ??_C@_0DH@LDFDLODO@Incompatible?5libpng?5version?5in?5a@ 10075770     d3dx8:pngread.obj
 0002:000037a8       ??_C@_0N@JEPAMDDI@zlib?5version?$AA@ 100757a8     d3dx8:pngread.obj
 0002:000037b8       ??_C@_0M@KPLPCJNA@zlib?5memory?$AA@ 100757b8     d3dx8:pngread.obj
 0002:000037c4       ??_C@_0BJ@LAKDHAPN@Missing?5PLTE?5before?5IDAT?$AA@ 100757c4     d3dx8:pngread.obj
 0002:000037e0       ??_C@_0BJ@FFGICIDJ@Missing?5IHDR?5before?5IDAT?$AA@ 100757e0     d3dx8:pngread.obj
 0002:000037fc       ??_C@_0CH@NMANOLCN@PNG?5file?5corrupted?5by?5ASCII?5conv@ 100757fc     d3dx8:pngread.obj
 0002:00003824       ??_C@_0P@KIMIGLKH@Not?5a?5PNG?5file?$AA@ 10075824     d3dx8:pngread.obj
 0002:00003834       ??_C@_0BG@OKGHHCLP@Extra?5compressed?5data?$AA@ 10075834     d3dx8:pngread.obj
 0002:0000384c       ??_C@_0BE@JMOGBNJB@Decompression?5error?$AA@ 1007584c     d3dx8:pngread.obj
 0002:00003860       ??_C@_0BG@EIEOOJHA@Not?5enough?5image?5data?$AA@ 10075860     d3dx8:pngread.obj
 0002:00003878       ??_C@_0CB@KCPNIGFM@Invalid?5attempt?5to?5read?5row?5data@ 10075878     d3dx8:pngread.obj
 0002:0000389c       ??_C@_0BG@JAHFDNP@Too?5many?5IDAT?8s?5found?$AA@ 1007589c     d3dx8:pngread.obj
 0002:000038b4       ??_C@_0DC@MHGEAIEM@Width?5too?5large?5for?5libpng?5to?5pr@ 100758b4     d3dx8:pngget.obj
 0002:000038e8       ??_C@_0CK@BDBGBGO@Can?8t?5discard?5critical?5data?5on?5C@ 100758e8     d3dx8:pngrtran.obj
 0002:00003918       __real@3fa999999999999a    10075918     d3dx8:pngrtran.obj
 0002:00003920       __real@40efffe000000000    10075920     d3dx8:pngrtran.obj
 0002:00003928       __real@3ef0001000100010    10075928     d3dx8:pngrtran.obj
 0002:00003930       __real@3f70000000000000    10075930     d3dx8:pngrtran.obj
 0002:00003938       ??_C@_0CC@JEAKIKEF@png_do_dither?5returned?5rowbytes?$DN@ 10075938     d3dx8:pngrtran.obj
 0002:0000395c       ??_C@_0BA@DBGPKIA@NULL?5row?5buffer?$AA@ 1007595c     d3dx8:pngrtran.obj
 0002:0000396c       ??_C@_0DP@GHHOJINM@Width?5too?5large?5to?5process?5image@ 1007596c     d3dx8:pngset.obj
 0002:000039b0       __real@3fdd1758e0000000    100759b0     d3dx8:pngset.obj
 0002:000039b8       ??_C@_0BL@GPADEDKN@Call?5to?5NULL?5read?5function?$AA@ 100759b8     d3dx8:pngrio.obj
 0002:000039d4       ??_C@_0DC@EOBOCMJO@same?5structure?4?5?5Resetting?5write@ 100759d4     d3dx8:pngrio.obj
 0002:00003a08       ??_C@_0EB@NJKELLKM@It?8s?5an?5error?5to?5set?5both?5read_d@ 10075a08     d3dx8:pngrio.obj
 0002:00003a54       ??_C@_0DE@EGBLPLND@?6?5libpng?5version?51?40?45?5?9?5October@ 10075a54     d3dx8:png.obj
 0002:00003a88       ??_C@_0CC@CMIPDMOP@Too?5many?5bytes?5for?5PNG?5signature@ 10075a88     d3dx8:png.obj
 0002:00003ab0       ??_C@_0MG@PPOOLDBG@?6?5libpng?5version?51?40?45?5?9?5October@ 10075ab0     d3dx8:png.obj
 0002:00003b78       ?jpeg_zigzag_order@D3DX@@3QBHB 10075b78     d3dx8:jutils.obj
 0002:00003c78       ?jpeg_natural_order@D3DX@@3QBHB 10075c78     d3dx8:jutils.obj
 0002:00003dc8       ??_C@_0BA@MOKMMFOD@need?5dictionary?$AA@ 10075dc8     d3dx8:inflate.obj
 0002:00003dd8       ??_C@_0BF@MEIGEHBE@incorrect?5data?5check?$AA@ 10075dd8     d3dx8:inflate.obj
 0002:00003df0       ??_C@_0BH@LIBMMIGA@incorrect?5header?5check?$AA@ 10075df0     d3dx8:inflate.obj
 0002:00003e08       ??_C@_0BE@EMOGCLGO@invalid?5window?5size?$AA@ 10075e08     d3dx8:inflate.obj
 0002:00003e1c       ??_C@_0BL@IHKGDAEE@unknown?5compression?5method?$AA@ 10075e1c     d3dx8:inflate.obj
 0002:00003e3c       ??_C@_0O@BPALFKAJ@Out?5of?5Memory?$AA@ 10075e3c     d3dx8:pngmem.obj
 0002:00003ec4       ??_C@_0BD@GFBMLKLH@invalid?5chunk?5type?$AA@ 10075ec4     d3dx8:pngrutil.obj
 0002:00003ed8       ??_C@_0CC@FECADCN@Ignoring?5bad?5adaptive?5filter?5typ@ 10075ed8     d3dx8:pngrutil.obj
 0002:00003efc       ??_C@_09BJGMGMHA@CRC?5error?$AA@ 10075efc     d3dx8:pngrutil.obj
 0002:00003f08       ??_C@_0BO@KOOEGEDO@Unknown?5filter?5method?5in?5IHDR?$AA@ 10075f08     d3dx8:pngrutil.obj
 0002:00003f28       ??_C@_0CD@DDOOCEDP@Unknown?5compression?5method?5in?5IH@ 10075f28     d3dx8:pngrutil.obj
 0002:00003f4c       ??_C@_0CB@EMHJMLOA@Unknown?5interlace?5method?5in?5IHDR@ 10075f4c     d3dx8:pngrutil.obj
 0002:00003f70       ??_C@_0DB@FGMBGHOJ@Invalid?5color?5type?1bit?5depth?5com@ 10075f70     d3dx8:pngrutil.obj
 0002:00003fa4       ??_C@_0BL@KPIFPGMP@Invalid?5color?5type?5in?5IHDR?$AA@ 10075fa4     d3dx8:pngrutil.obj
 0002:00003fc0       ??_C@_0BK@OAKOLNFJ@Invalid?5bit?5depth?5in?5IHDR?$AA@ 10075fc0     d3dx8:pngrutil.obj
 0002:00003fdc       ??_C@_0BL@PKEOJJBA@Invalid?5image?5size?5in?5IHDR?$AA@ 10075fdc     d3dx8:pngrutil.obj
 0002:00003ff8       ??_C@_0BD@CLODLFAN@Invalid?5IHDR?5chunk?$AA@ 10075ff8     d3dx8:pngrutil.obj
 0002:0000400c       ??_C@_0BC@KBAKFAAH@Out?5of?5place?5IHDR?$AA@ 1007600c     d3dx8:pngrutil.obj
 0002:00004020       ??_C@_0CH@GNNEJFAH@Truncating?5incorrect?5tRNS?5chunk?5@ 10076020     d3dx8:pngrutil.obj
 0002:00004048       ??_C@_0BG@HHEHMEJK@Invalid?5palette?5chunk?$AA@ 10076048     d3dx8:pngrutil.obj
 0002:00004060       ??_C@_0BF@PMKDIIMG@Duplicate?5PLTE?5chunk?$AA@ 10076060     d3dx8:pngrutil.obj
 0002:00004078       ??_C@_0BI@GEKPHPN@Invalid?5PLTE?5after?5IDAT?$AA@ 10076078     d3dx8:pngrutil.obj
 0002:00004090       ??_C@_0BJ@LEBILHKO@Missing?5IHDR?5before?5PLTE?$AA@ 10076090     d3dx8:pngrutil.obj
 0002:000040ac       ??_C@_0BM@PFCLLCBO@Incorrect?5IEND?5chunk?5length?$AA@ 100760ac     d3dx8:pngrutil.obj
 0002:000040c8       ??_C@_0BB@BLPFHNNN@No?5image?5in?5file?$AA@ 100760c8     d3dx8:pngrutil.obj
 0002:000040dc       ??_C@_0DI@KINMKNNO@Ignoring?5incorrect?5gAMA?5value?5wh@ 100760dc     d3dx8:pngrutil.obj
 0002:00004118       __real@407f400000000000    10076118     d3dx8:pngrutil.obj
 0002:00004120       __real@40e631e000000000    10076120     d3dx8:pngrutil.obj
 0002:00004128       ??_C@_0BF@IMCFKHDJ@Duplicate?5gAMA?5chunk?$AA@ 10076128     d3dx8:pngrutil.obj
 0002:00004140       ??_C@_0BI@JEEHFLME@Out?5of?5place?5gAMA?5chunk?$AA@ 10076140     d3dx8:pngrutil.obj
 0002:00004158       ??_C@_0BI@POPIJBNN@Invalid?5gAMA?5after?5IDAT?$AA@ 10076158     d3dx8:pngrutil.obj
 0002:00004170       ??_C@_0BM@NIAHDFBB@Incorrect?5gAMA?5chunk?5length?$AA@ 10076170     d3dx8:pngrutil.obj
 0002:0000418c       ??_C@_0BJ@CCOIFGBO@Missing?5IHDR?5before?5gAMA?$AA@ 1007618c     d3dx8:pngrutil.obj
 0002:000041a8       __real@47c35000            100761a8     d3dx8:pngrutil.obj
 0002:000041ac       ??_C@_0BE@CEGOJHBA@Unknown?5sRGB?5intent?$AA@ 100761ac     d3dx8:pngrutil.obj
 0002:000041c0       ??_C@_0BF@EFDCKHOG@Duplicate?5sRGB?5chunk?$AA@ 100761c0     d3dx8:pngrutil.obj
 0002:000041d8       ??_C@_0BI@FNFAFLBL@Out?5of?5place?5sRGB?5chunk?$AA@ 100761d8     d3dx8:pngrutil.obj
 0002:000041f0       ??_C@_0BI@PGAMKAKH@Invalid?5sRGB?5after?5IDAT?$AA@ 100761f0     d3dx8:pngrutil.obj
 0002:00004208       ??_C@_0BM@FMAJKMKD@Incorrect?5sRGB?5chunk?5length?$AA@ 10076208     d3dx8:pngrutil.obj
 0002:00004224       ??_C@_0BJ@NDJOEJDI@Missing?5IHDR?5before?5sRGB?$AA@ 10076224     d3dx8:pngrutil.obj
 0002:00004240       ??_C@_0CK@JMGMOHJA@tRNS?5chunk?5not?5allowed?5with?5alph@ 10076240     d3dx8:pngrutil.obj
 0002:0000426c       ??_C@_0BM@JNMFOMLO@Incorrect?5tRNS?5chunk?5length?$AA@ 1007626c     d3dx8:pngrutil.obj
 0002:00004288       ??_C@_0BF@HALLDFIL@Duplicate?5tRNS?5chunk?$AA@ 10076288     d3dx8:pngrutil.obj
 0002:000042a0       ??_C@_0BI@MMDCNIMN@Invalid?5tRNS?5after?5IDAT?$AA@ 100762a0     d3dx8:pngrutil.obj
 0002:000042b8       ??_C@_0BH@JJNMONHM@Zero?5length?5tRNS?5chunk?$AA@ 100762b8     d3dx8:pngrutil.obj
 0002:000042d0       ??_C@_0BJ@NIHNNFHD@Missing?5PLTE?5before?5tRNS?$AA@ 100762d0     d3dx8:pngrutil.obj
 0002:000042ec       ??_C@_0BJ@DNLGINLH@Missing?5IHDR?5before?5tRNS?$AA@ 100762ec     d3dx8:pngrutil.obj
 0002:00004308       ??_C@_0BH@OMJPKJPP@unknown?5critical?5chunk?$AA@ 10076308     d3dx8:pngrutil.obj
 0002:00004320       ??_C@_0BH@KJLLHDND@Extra?5compression?5data?$AA@ 10076320     d3dx8:pngrutil.obj
 0002:00004338       ??_C@_0BE@JLEKBIKH@Decompression?5Error?$AA@ 10076338     d3dx8:pngrutil.obj
 0002:00004ad4       ??_C@_0BK@BMMPFBBH@invalid?5bit?5length?5repeat?$AA@ 10076ad4     d3dx8:infblock.obj
 0002:00004af0       ??_C@_0CE@GMIGFPBB@too?5many?5length?5or?5distance?5symb@ 10076af0     d3dx8:infblock.obj
 0002:00004b14       ??_C@_0BN@LGAADGOK@invalid?5stored?5block?5lengths?$AA@ 10076b14     d3dx8:infblock.obj
 0002:00004b34       ??_C@_0BD@PJCBIDD@invalid?5block?5type?$AA@ 10076b34     d3dx8:infblock.obj
 0002:00004b48       ??_C@_0BF@CJFPCCEG@incompatible?5version?$AA@ 10076b48     d3dx8:zutil.obj
 0002:00004b60       ??_C@_0N@DFPGLBGC@buffer?5error?$AA@ 10076b60     d3dx8:zutil.obj
 0002:00004b70       ??_C@_0BE@OGGJBMCE@insufficient?5memory?$AA@ 10076b70     d3dx8:zutil.obj
 0002:00004b84       ??_C@_0L@HAHMBNLP@data?5error?$AA@ 10076b84     d3dx8:zutil.obj
 0002:00004b90       ??_C@_0N@MKKNPMJD@stream?5error?$AA@ 10076b90     d3dx8:zutil.obj
 0002:00004ba0       ??_C@_0L@KIJFAKBJ@file?5error?$AA@ 10076ba0     d3dx8:zutil.obj
 0002:00004bac       ??_C@_00CNPNBAHC@?$AA@     10076bac     d3dx8:zutil.obj
 0002:00004bb0       ??_C@_0L@FNAOCBOG@stream?5end?$AA@ 10076bb0     d3dx8:zutil.obj
 0002:00004bbc       __real@3f8a8bd4            10076bbc     d3dx8:jidctflt.obj
 0002:00004bc0       __real@40273d75            10076bc0     d3dx8:jidctflt.obj
 0002:00004bc4       __real@3fec835e            10076bc4     d3dx8:jidctflt.obj
 0002:00004bc8       __real@3fb504f3            10076bc8     d3dx8:jidctflt.obj
 0002:00004bcc       ??_C@_0BG@LBKINIKP@invalid?5distance?5code?$AA@ 10076bcc     d3dx8:infcodes.obj
 0002:00004be4       ??_C@_0BM@FFFLPBBC@invalid?5literal?1length?5code?$AA@ 10076be4     d3dx8:infcodes.obj
 0002:00004df0       ??_C@_0CE@LOHAHEGK@incomplete?5dynamic?5bit?5lengths?5t@ 10076df0     d3dx8:inftrees.obj
 0002:00004e14       ??_C@_0CI@CGMOPDPD@oversubscribed?5dynamic?5bit?5lengt@ 10076e14     d3dx8:inftrees.obj
 0002:00004e3c       ??_C@_0BP@NEEEJJNA@incomplete?5literal?1length?5tree?$AA@ 10076e3c     d3dx8:inftrees.obj
 0002:00004e5c       ??_C@_0CD@GJIDGCKE@oversubscribed?5literal?1length?5tr@ 10076e5c     d3dx8:inftrees.obj
 0002:00004e80       ??_C@_0CB@KPKKKLFO@empty?5distance?5tree?5with?5lengths@ 10076e80     d3dx8:inftrees.obj
 0002:00004ea4       ??_C@_0BJ@CBCPDPJF@incomplete?5distance?5tree?$AA@ 10076ea4     d3dx8:inftrees.obj
 0002:00004ec0       ??_C@_0BN@KBLCDIAI@oversubscribed?5distance?5tree?$AA@ 10076ec0     d3dx8:inftrees.obj
 0002:00005050       _IID_IUnknown              10077050     uuid:unknwn_i_guid0.obj
 0002:00006cdc       __IMPORT_DESCRIPTOR_KERNEL32 10078cdc     kernel32:KERNEL32.dll
 0002:00006cf0       __IMPORT_DESCRIPTOR_USER32 10078cf0     user32:USER32.dll
 0002:00006d04       __IMPORT_DESCRIPTOR_comdlg32 10078d04     comdlg32:comdlg32.dll
 0002:00006d18       __IMPORT_DESCRIPTOR_MSVCP60 10078d18     msvcprt:MSVCP60.dll
 0002:00006d2c       __IMPORT_DESCRIPTOR_WINMM  10078d2c     winmm:WINMM.dll
 0002:00006d40       __IMPORT_DESCRIPTOR_MSVCRT 10078d40     MSVCRT:MSVCRT.dll
 0002:00006d54       __IMPORT_DESCRIPTOR_GDI32  10078d54     gdi32:GDI32.dll
 0002:00006d68       __NULL_IMPORT_DESCRIPTOR   10078d68     kernel32:KERNEL32.dll
 0003:00000000       ___xc_a                    1007a000     MSVCRT:cinitexe.obj
 0003:0000003c       ___xc_z                    1007a03c     MSVCRT:cinitexe.obj
 0003:00000040       ___xi_a                    1007a040     MSVCRT:cinitexe.obj
 0003:00000044       ___xi_z                    1007a044     MSVCRT:cinitexe.obj
 0003:00000054       ??_C@_07OADP@diffuse?$AA@  1007a054     lightobjects.obj
 0003:0000005c       ??_C@_07NAGL@arrow?4x?$AA@ 1007a05c     lightobjects.obj
 0003:00000064       ??_C@_0BA@BNJA@lightobject?4vso?$AA@ 1007a064     lightobjects.obj
 0003:00000074       ??_C@_08HKKI@texture0?$AA@ 1007a074     lightobjects.obj
 0003:00000080       ??_C@_08BOHH@position?$AA@ 1007a080     lightobjects.obj
 0003:00000090       ??_C@_06KMLP@normal?$AA@   1007a090     nvcomplexmesh.obj
 0003:00000098       ??_C@_08JFKG@sxtbasis?$AA@ 1007a098     nvcomplexmesh.obj
 0003:000000a4       ??_C@_06CLGA@tbasis?$AA@   1007a0a4     nvcomplexmesh.obj
 0003:000000ac       ??_C@_06MDAA@sbasis?$AA@   1007a0ac     nvcomplexmesh.obj
 0003:000000b4       ??_C@_07DIGL@texture?$AA@  1007a0b4     nvcomplexmesh.obj
 0003:000000bc       ??_C@_08FOJI@specular?$AA@ 1007a0bc     nvcomplexmesh.obj
 0003:000000c8       ??_C@_05EBLP@power?$AA@    1007a0c8     nvcomplexmesh.obj
 0003:000000d0       ??_C@_08KOLP@emissive?$AA@ 1007a0d0     nvcomplexmesh.obj
 0003:000000dc       ??_C@_07MDLH@ambient?$AA@  1007a0dc     nvcomplexmesh.obj
 0003:000000e4       ??_C@_01PJCK@?4?$AA@       1007a0e4     nvcomplexmesh.obj
 0003:000000e8       ??_C@_01PCFE@?2?$AA@       1007a0e8     nvcomplexmesh.obj
 0003:000000ec       ??_C@_01FCOA@?5?$AA@       1007a0ec     nvcomplexmesh.obj
 0003:000000f0       ??_C@_01LHO@r?$AA@         1007a0f0     nvcomplexmesh.obj
 0003:000000fc       ??_C@_0L@DCNB@output?4nvv?$AA@ 1007a0fc     shader_LinkerDemo.obj
 0003:00000108       ??_C@_0L@FNHN@bigship1?4x?$AA@ 1007a108     shader_LinkerDemo.obj
 0003:00000114       ??_C@_0P@JAAK@miscvertex?4nvf?$AA@ 1007a114     shader_LinkerDemo.obj
 0003:00000124       ??_C@_0BO@EKCP@NVLink?5Vertex?5Shader?5Combiner?$AA@ 1007a124     shader_LinkerDemo.obj
 0003:00000144       ??_C@_05HNDG@Tools?$AA@    1007a144     shader_LinkerDemo.obj
 0003:0000014c       ??_C@_0CD@PIFP@Change?5EffectVertexShader?5proper@ 1007a14c     shader_LinkerDemo.obj
 0003:00000170       ??_C@_0CC@HNC@Change?5EffectPixelShader?5propert@ 1007a170     shader_LinkerDemo.obj
 0003:00000194       ??_C@_0BP@PJKM@Change?5EffectLocation?5property?$AA@ 1007a194     shader_LinkerDemo.obj
 0003:000001b4       ??_C@_0BL@NIA@Change?5EffectName?5property?$AA@ 1007a1b4     shader_LinkerDemo.obj
 0003:000001d0       ??_C@_06HHJK@Output?$AA@   1007a1d0     shader_LinkerDemo.obj
 0003:000001d8       ??_C@_0P@KFNK@Basis?5Skinning?$AA@ 1007a1d8     shader_LinkerDemo.obj
 0003:000001e8       ??_C@_0BC@FAC@basisskinning?4nvf?$AA@ 1007a1e8     shader_LinkerDemo.obj
 0003:000001fc       ??_C@_0M@OMKN@ObjectSpace?$AA@ 1007a1fc     shader_LinkerDemo.obj
 0003:00000208       ??_C@_0BA@BDFG@objectspace?4nvf?$AA@ 1007a208     shader_LinkerDemo.obj
 0003:00000218       ??_C@_08NOKA@EyeSpace?$AA@ 1007a218     shader_LinkerDemo.obj
 0003:00000224       ??_C@_0N@OMPH@eyespace?4nvf?$AA@ 1007a224     shader_LinkerDemo.obj
 0003:00000234       ??_C@_0BA@KLJL@Shared?5Lighting?$AA@ 1007a234     shader_LinkerDemo.obj
 0003:00000244       ??_C@_0N@FDFG@lighting?4nvf?$AA@ 1007a244     shader_LinkerDemo.obj
 0003:00000254       ??_C@_06HHBJ@Shared?$AA@   1007a254     shader_LinkerDemo.obj
 0003:0000025c       ??_C@_0BG@BKGA@Load?5another?5model?4?4?4?$AA@ 1007a25c     shader_LinkerDemo.obj
 0003:00000274       ??_C@_0L@LCCO@Show?5Model?$AA@ 1007a274     shader_LinkerDemo.obj
 0003:00000280       ??_C@_0M@CHMF@Show?5Sphere?$AA@ 1007a280     shader_LinkerDemo.obj
 0003:0000028c       ??_C@_0BA@CAMM@Display?5Options?$AA@ 1007a28c     shader_LinkerDemo.obj
 0003:0000029c       ??_C@_0M@KBMO@VertexCount?$AA@ 1007a29c     shader_LinkerDemo.obj
 0003:000002a8       ??_C@_0O@GHOM@TriangleCount?$AA@ 1007a2a8     shader_LinkerDemo.obj
 0003:000002b8       ??_C@_05PFIH@Pause?$AA@    1007a2b8     shader_LinkerDemo.obj
 0003:000002c0       ??_C@_09OKJO@Wireframe?$AA@ 1007a2c0     shader_LinkerDemo.obj
 0003:000002cc       ??_C@_09NIJC@LastError?$AA@ 1007a2cc     shader_LinkerDemo.obj
 0003:000002d8       ??_C@_0BB@HJKC@EffectDirtyFlags?$AA@ 1007a2d8     shader_LinkerDemo.obj
 0003:000002ec       ??_C@_0O@CNLE@EffectVersion?$AA@ 1007a2ec     shader_LinkerDemo.obj
 0003:000002fc       ??_C@_0BD@OPBC@EffectVertexShader?$AA@ 1007a2fc     shader_LinkerDemo.obj
 0003:00000310       ??_C@_0BC@OLJB@EffectPixelShader?$AA@ 1007a310     shader_LinkerDemo.obj
 0003:00000324       ??_C@_0P@HAEK@EffectLocation?$AA@ 1007a324     shader_LinkerDemo.obj
 0003:00000334       ??_C@_0L@ODGD@EffectName?$AA@ 1007a334     shader_LinkerDemo.obj
 0003:00000340       ??_C@_0CB@JEAH@Device?5does?5not?5support?5mipmaps?$CB@ 1007a340     shader_LinkerDemo.obj
 0003:00000364       ??_C@_0BO@FBEN@Could?5not?5lock?5vertex?5buffer?$CB?$AA@ 1007a364     shader_LinkerDemo.obj
 0003:00000384       ??_C@_0BP@PNPL@Could?5not?5create?5index?5buffer?$CB?$AA@ 1007a384     shader_LinkerDemo.obj
 0003:000003a4       ??_C@_0CA@PEP@Could?5not?5create?5vertex?5buffer?$CB?$AA@ 1007a3a4     shader_LinkerDemo.obj
 0003:000003c4       ??_C@_0BE@OCKD@Error?5opening?5file?5?$AA@ 1007a3c4     shader_LinkerDemo.obj
 0003:000003d8       ??_C@_0CA@HFOJ@Failed?5to?5give?5linker?5fragments?$AA@ 1007a3d8     shader_LinkerDemo.obj
 0003:000003f8       ??_C@_0CI@KNMG@Failed?5to?5allocate?5memory?5for?5fr@ 1007a3f8     shader_LinkerDemo.obj
 0003:00000420       ??_C@_0BF@EAHG@Could?5not?5find?5file?5?$AA@ 1007a420     shader_LinkerDemo.obj
 0003:00000438       ??_C@_0CI@NOAE@Could?5not?5resolve?5dialog?5box?5fun@ 1007a438     shader_LinkerDemo.obj
 0003:00000460       ??_C@_0BA@HEJB@Failed?5to?5load?5?$AA@ 1007a460     shader_LinkerDemo.obj
 0003:00000470       ??_C@_0CC@PKHD@Failed?5to?5create?5cube?5environmen@ 1007a470     shader_LinkerDemo.obj
 0003:00000494       ??_C@_0DD@LOJM@Failed?5to?5create?5cubemap?5?$CInvlobb@ 1007a494     shader_LinkerDemo.obj
 0003:000004c8       ??_C@_07KIMO@CubeMap?$AA@  1007a4c8     shader_LinkerDemo.obj
 0003:000004d0       ??_C@_0BI@NNAJ@nvlobby_cube_mipmap?4dds?$AA@ 1007a4d0     shader_LinkerDemo.obj
 0003:000004e8       ??_C@_0DB@KBLC@Failed?5to?5create?5glossmap?5?$CIgloss@ 1007a4e8     shader_LinkerDemo.obj
 0003:0000051c       ??_C@_0BA@MDMB@DefaultGlossMap?$AA@ 1007a51c     shader_LinkerDemo.obj
 0003:0000052c       ??_C@_0BF@FHB@gloss_map_nvidia?4dds?$AA@ 1007a52c     shader_LinkerDemo.obj
 0003:00000544       ??_C@_0BB@NDLA@linkerpixels?4pso?$AA@ 1007a544     shader_LinkerDemo.obj
 0003:00000558       ??_C@_0BB@CACI@DefaultNormalMap?$AA@ 1007a558     shader_LinkerDemo.obj
 0003:0000056c       ??_C@_0DB@HCFJ@Failed?5to?5create?5HeightMap?5?$CIbump@ 1007a56c     shader_LinkerDemo.obj
 0003:000005a0       ??_C@_0BB@MKAH@DefaultHeightMap?$AA@ 1007a5a0     shader_LinkerDemo.obj
 0003:000005b4       ??_C@_0BE@NIIF@bump_map_nvidia?4dds?$AA@ 1007a5b4     shader_LinkerDemo.obj
 0003:000005c8       ??_C@_0BP@OFGC@Failed?5to?5create?5light?5objects?$AA@ 1007a5c8     shader_LinkerDemo.obj
 0003:000005e8       ??_C@_0L@BAAP@v_texture7?$AA@ 1007a5e8     shader_LinkerDemo.obj
 0003:000005f4       ??_C@_0L@LKJI@v_texture6?$AA@ 1007a5f4     shader_LinkerDemo.obj
 0003:00000600       ??_C@_0L@EFCB@v_texture5?$AA@ 1007a600     shader_LinkerDemo.obj
 0003:0000060c       ??_C@_0L@OPLG@v_texture4?$AA@ 1007a60c     shader_LinkerDemo.obj
 0003:00000618       ??_C@_0L@LKFD@v_texture3?$AA@ 1007a618     shader_LinkerDemo.obj
 0003:00000624       ??_C@_0L@BAME@v_texture2?$AA@ 1007a624     shader_LinkerDemo.obj
 0003:00000630       ??_C@_0L@OPHN@v_texture1?$AA@ 1007a630     shader_LinkerDemo.obj
 0003:0000063c       ??_C@_0M@OGDK@v_sxtbasis0?$AA@ 1007a63c     shader_LinkerDemo.obj
 0003:00000648       ??_C@_09CIHG@v_tbasis0?$AA@ 1007a648     shader_LinkerDemo.obj
 0003:00000654       ??_C@_09OBJO@v_sbasis0?$AA@ 1007a654     shader_LinkerDemo.obj
 0003:00000660       ??_C@_0L@GBNK@v_specular?$AA@ 1007a660     shader_LinkerDemo.obj
 0003:0000066c       ??_C@_09KCPC@v_diffuse?$AA@ 1007a66c     shader_LinkerDemo.obj
 0003:00000678       ??_C@_08GBLB@v_normal?$AA@ 1007a678     shader_LinkerDemo.obj
 0003:00000684       ??_C@_0L@JBKB@c_fogconst?$AA@ 1007a684     shader_LinkerDemo.obj
 0003:00000690       ??_C@_0M@EGAI@c_mat_power?$AA@ 1007a690     shader_LinkerDemo.obj
 0003:0000069c       ??_C@_0BG@LHPO@c_pointlight_specular?$AA@ 1007a69c     shader_LinkerDemo.obj
 0003:000006b4       ??_C@_0BF@IGEA@c_pointlight_diffuse?$AA@ 1007a6b4     shader_LinkerDemo.obj
 0003:000006cc       ??_C@_0BG@PHBB@c_pointlight_position?$AA@ 1007a6cc     shader_LinkerDemo.obj
 0003:000006e4       ??_C@_0BE@OGFH@c_dirlight_specular?$AA@ 1007a6e4     shader_LinkerDemo.obj
 0003:000006f8       ??_C@_0BD@CPMA@c_dirlight_diffuse?$AA@ 1007a6f8     shader_LinkerDemo.obj
 0003:0000070c       ??_C@_0BF@ECME@c_dirlight_direction?$AA@ 1007a70c     shader_LinkerDemo.obj
 0003:00000724       ??_C@_0P@DOFJ@c_cubematrix_2?$AA@ 1007a724     shader_LinkerDemo.obj
 0003:00000734       ??_C@_0P@MBOA@c_cubematrix_1?$AA@ 1007a734     shader_LinkerDemo.obj
 0003:00000744       ??_C@_0P@GLHH@c_cubematrix_0?$AA@ 1007a744     shader_LinkerDemo.obj
 0003:00000754       ??_C@_0BF@BJJN@c_worldviewcubemap_2?$AA@ 1007a754     shader_LinkerDemo.obj
 0003:0000076c       ??_C@_0BF@OGCE@c_worldviewcubemap_1?$AA@ 1007a76c     shader_LinkerDemo.obj
 0003:00000784       ??_C@_0BF@EMLD@c_worldviewcubemap_0?$AA@ 1007a784     shader_LinkerDemo.obj
 0003:0000079c       ??_C@_0O@NBPK@c_worldview_3?$AA@ 1007a79c     shader_LinkerDemo.obj
 0003:000007ac       ??_C@_0O@HLGN@c_worldview_2?$AA@ 1007a7ac     shader_LinkerDemo.obj
 0003:000007bc       ??_C@_0O@IENE@c_worldview_1?$AA@ 1007a7bc     shader_LinkerDemo.obj
 0003:000007cc       ??_C@_0O@COED@c_worldview_0?$AA@ 1007a7cc     shader_LinkerDemo.obj
 0003:000007dc       ??_C@_0BA@CGLI@c_worldviewit_2?$AA@ 1007a7dc     shader_LinkerDemo.obj
 0003:000007ec       ??_C@_0BA@NJAB@c_worldviewit_1?$AA@ 1007a7ec     shader_LinkerDemo.obj
 0003:000007fc       ??_C@_0BA@HDJG@c_worldviewit_0?$AA@ 1007a7fc     shader_LinkerDemo.obj
 0003:0000080c       ??_C@_0BI@DKLK@c_worldviewprojection_3?$AA@ 1007a80c     shader_LinkerDemo.obj
 0003:00000824       ??_C@_0BI@JACN@c_worldviewprojection_2?$AA@ 1007a824     shader_LinkerDemo.obj
 0003:0000083c       ??_C@_0BI@GPJE@c_worldviewprojection_1?$AA@ 1007a83c     shader_LinkerDemo.obj
 0003:00000854       ??_C@_0BI@MFAD@c_worldviewprojection_0?$AA@ 1007a854     shader_LinkerDemo.obj
 0003:0000086c       ??_C@_0BF@FCCD@c_eyespace_eyevector?$AA@ 1007a86c     shader_LinkerDemo.obj
 0003:00000884       ??_C@_0BK@LMAC@c_objectspace_eyeposition?$AA@ 1007a884     shader_LinkerDemo.obj
 0003:000008a0       ??_C@_0BI@BMGN@c_objectspace_eyevector?$AA@ 1007a8a0     shader_LinkerDemo.obj
 0003:000008b8       ??_C@_0M@OHIH@c_constants?$AA@ 1007a8b8     shader_LinkerDemo.obj
 0003:000008c4       ??_C@_0BA@MEBD@c_ambient_light?$AA@ 1007a8c4     shader_LinkerDemo.obj
 0003:000008d4       ??_C@_0BG@IJIK@c_dirlight_halfvector?$AA@ 1007a8d4     shader_LinkerDemo.obj
 0003:000008ec       ??_C@_0BH@PAIH@write_default_specular?$AA@ 1007a8ec     shader_LinkerDemo.obj
 0003:00000904       ??_C@_0BG@CHIB@write_default_texture?$AA@ 1007a904     shader_LinkerDemo.obj
 0003:0000091c       ??_C@_0BG@PPNF@write_default_diffuse?$AA@ 1007a91c     shader_LinkerDemo.obj
 0003:00000934       ??_C@_0O@ILGE@write_texture?$AA@ 1007a934     shader_LinkerDemo.obj
 0003:00000944       ??_C@_0EG@IPF@calculate_objectspace_pointlight@ 1007a944     shader_LinkerDemo.obj
 0003:0000098c       ??_C@_0EP@EFKP@calculate_objectspace_pointlight@ 1007a98c     shader_LinkerDemo.obj
 0003:000009dc       ??_C@_0EM@CKEI@calculate_objectspace_pointlight@ 1007a9dc     shader_LinkerDemo.obj
 0003:00000a28       ??_C@_0DD@LPDN@calculate_objectspace_pointlight@ 1007aa28     shader_LinkerDemo.obj
 0003:00000a5c       ??_C@_0CI@EOGA@calculate_objectspace_pointlight@ 1007aa5c     shader_LinkerDemo.obj
 0003:00000a84       ??_C@_0DJ@OIKG@calculate_objectspace_directiona@ 1007aa84     shader_LinkerDemo.obj
 0003:00000ac0       ??_C@_0EM@JNEJ@calculate_objectspace_directiona@ 1007aac0     shader_LinkerDemo.obj
 0003:00000b0c       ??_C@_0FC@OFNC@calculate_objectspace_directiona@ 1007ab0c     shader_LinkerDemo.obj
 0003:00000b60       ??_C@_0FF@ENMI@calculate_objectspace_directiona@ 1007ab60     shader_LinkerDemo.obj
 0003:00000bb8       ??_C@_0BL@BDPN@calculate_linear_range_fog?$AA@ 1007abb8     shader_LinkerDemo.obj
 0003:00000bd4       ??_C@_0CA@MLEF@calculate_cubereflection_vector?$AA@ 1007abd4     shader_LinkerDemo.obj
 0003:00000bf4       ??_C@_0CB@HCHJ@calculate_objectspace_reflection@ 1007abf4     shader_LinkerDemo.obj
 0003:00000c18       ??_C@_0CK@LCOK@create_objectspace_eyevector_loc@ 1007ac18     shader_LinkerDemo.obj
 0003:00000c44       ??_C@_0BI@MCHD@calculate_basis_vectors?$AA@ 1007ac44     shader_LinkerDemo.obj
 0003:00000c5c       ??_C@_0ED@PFHP@calculate_eyespace_pointlight_di@ 1007ac5c     shader_LinkerDemo.obj
 0003:00000ca0       ??_C@_0EM@BIMH@calculate_eyespace_pointlight_di@ 1007aca0     shader_LinkerDemo.obj
 0003:00000cec       ??_C@_0EJ@PLCB@calculate_eyespace_pointlight_di@ 1007acec     shader_LinkerDemo.obj
 0003:00000d38       ??_C@_0DA@DOHJ@calculate_eyespace_pointlight_di@ 1007ad38     shader_LinkerDemo.obj
 0003:00000d68       ??_C@_0CF@OJMM@calculate_eyespace_pointlight_ve@ 1007ad68     shader_LinkerDemo.obj
 0003:00000d90       ??_C@_0EJ@EMCA@calculate_eyespace_directionalli@ 1007ad90     shader_LinkerDemo.obj
 0003:00000ddc       ??_C@_0DG@EHHL@calculate_eyespace_directionalli@ 1007addc     shader_LinkerDemo.obj
 0003:00000e14       ??_C@_0EP@LAK@calculate_eyespace_directionalli@ 1007ae14     shader_LinkerDemo.obj
 0003:00000e64       ??_C@_0FC@DKI@calculate_eyespace_directionalli@ 1007ae64     shader_LinkerDemo.obj
 0003:00000eb8       ??_C@_0BO@LHPD@calculate_eyespace_reflection?$AA@ 1007aeb8     shader_LinkerDemo.obj
 0003:00000ed8       ??_C@_0BH@PMA@create_eyespace_normal?$AA@ 1007aed8     shader_LinkerDemo.obj
 0003:00000ef0       ??_C@_0CH@OPC@create_eyespace_eyevector_local_@ 1007aef0     shader_LinkerDemo.obj
 0003:00000f18       ??_C@_0BH@DOM@create_eyespace_vertex?$AA@ 1007af18     shader_LinkerDemo.obj
 0003:00000f30       ??_C@_0CM@PCOE@dirlight_accumulate_specular_fir@ 1007af30     shader_LinkerDemo.obj
 0003:00000f5c       ??_C@_0CC@HJII@dirlight_accumulate_specular_las@ 1007af5c     shader_LinkerDemo.obj
 0003:00000f80       ??_C@_0BN@GKML@dirlight_accumulate_specular?$AA@ 1007af80     shader_LinkerDemo.obj
 0003:00000fa0       ??_C@_0CD@JLMG@dirlight_accumulate_specular_fir@ 1007afa0     shader_LinkerDemo.obj
 0003:00000fc4       ??_C@_0CB@DJGK@dirlight_accumulate_diffuse_last@ 1007afc4     shader_LinkerDemo.obj
 0003:00000fe8       ??_C@_0BM@LDDO@dirlight_accumulate_diffuse?$AA@ 1007afe8     shader_LinkerDemo.obj
 0003:00001004       ??_C@_0CO@CEEN@pointlight_accumulate_specular_f@ 1007b004     shader_LinkerDemo.obj
 0003:00001034       ??_C@_0CE@LFNE@pointlight_accumulate_specular_l@ 1007b034     shader_LinkerDemo.obj
 0003:00001058       ??_C@_0BP@FLLD@pointlight_accumulate_specular?$AA@ 1007b058     shader_LinkerDemo.obj
 0003:00001078       ??_C@_0CF@CCAK@pointlight_accumulate_specular_f@ 1007b078     shader_LinkerDemo.obj
 0003:000010a0       ??_C@_0CD@GFJB@pointlight_accumulate_diffuse_la@ 1007b0a0     shader_LinkerDemo.obj
 0003:000010c4       ??_C@_0BO@MLEL@pointlight_accumulate_diffuse?$AA@ 1007b0c4     shader_LinkerDemo.obj
 0003:000010e4       ??_C@_0CE@PJEP@clamp_diffuse_exponentiate_specu@ 1007b0e4     shader_LinkerDemo.obj
 0003:00001108       ??_C@_09MNLC@set_power?$AA@ 1007b108     shader_LinkerDemo.obj
 0003:00001114       ??_C@_0BK@NIEL@xform_worldviewprojection?$AA@ 1007b114     shader_LinkerDemo.obj
 0003:00001130       ??_C@_0BE@ODPP@set_default_texture?$AA@ 1007b130     shader_LinkerDemo.obj
 0003:00001144       ??_C@_0M@NIJO@set_ambient?$AA@ 1007b144     shader_LinkerDemo.obj
 0003:00001150       ??_C@_0BC@PLCN@basisskinning?4nvo?$AA@ 1007b150     shader_LinkerDemo.obj
 0003:00001164       ??_C@_0N@BCNI@eyespace?4nvo?$AA@ 1007b164     shader_LinkerDemo.obj
 0003:00001174       ??_C@_0BA@ONHJ@objectspace?4nvo?$AA@ 1007b174     shader_LinkerDemo.obj
 0003:00001184       ??_C@_0N@KNHJ@lighting?4nvo?$AA@ 1007b184     shader_LinkerDemo.obj
 0003:00001194       ??_C@_0P@GOCF@miscvertex?4nvo?$AA@ 1007b194     shader_LinkerDemo.obj
 0003:000011a4       ??_C@_0DJ@GNJF@Could?5not?5resolve?5linker?5create?5@ 1007b1a4     shader_LinkerDemo.obj
 0003:000011e0       ??_C@_0N@KA@CreateLinker?$AA@ 1007b1e0     shader_LinkerDemo.obj
 0003:000011f0       ??_C@_0CL@NKEK@Could?5not?5create?5linker?5dll?5?$CInvl@ 1007b1f0     shader_LinkerDemo.obj
 0003:0000121c       ??_C@_0N@DFPL@nvlinker?4dll?$AA@ 1007b21c     shader_LinkerDemo.obj
 0003:0000122c       ??_C@_0CB@CKLF@Could?5not?5initialize?5dialog?5box?$CB@ 1007b22c     shader_LinkerDemo.obj
 0003:00001250       ??_C@_0BJ@DJNA@LinkerDialog_SetSettings?$AA@ 1007b250     shader_LinkerDemo.obj
 0003:0000126c       ??_C@_0BJ@DLBD@LinkerDialog_GetSettings?$AA@ 1007b26c     shader_LinkerDemo.obj
 0003:00001288       ??_C@_0BC@DLMA@LinkerDialog_Free?$AA@ 1007b288     shader_LinkerDemo.obj
 0003:0000129c       ??_C@_0BI@CAGC@LinkerDialog_Initialise?$AA@ 1007b29c     shader_LinkerDemo.obj
 0003:000012b4       ??_C@_0BI@HIIJ@LinkerDialog_ShowDialog?$AA@ 1007b2b4     shader_LinkerDemo.obj
 0003:000012cc       ??_C@_0CA@BLHB@Could?5not?5load?5linkerdialog?4dll?$AA@ 1007b2cc     shader_LinkerDemo.obj
 0003:000012ec       ??_C@_0BB@NFBH@linkerdialog?4dll?$AA@ 1007b2ec     shader_LinkerDemo.obj
 0003:00001300       ??_C@_09BOAF@sxtbasis0?$AA@ 1007b300     shader_LinkerDemo.obj
 0003:0000130c       ??_C@_07GKLL@tbasis0?$AA@  1007b30c     shader_LinkerDemo.obj
 0003:00001314       ??_C@_07KDFD@sbasis0?$AA@  1007b314     shader_LinkerDemo.obj
 0003:0000131c       ??_C@_0CL@GOPO@Failed?5CreateVertexShader?5on?5lin@ 1007b31c     shader_LinkerDemo.obj
 0003:00001348       ??_C@_0BG@DDPO@Failed?5to?5link?5shader?$AA@ 1007b348     shader_LinkerDemo.obj
 0003:00001360       ??_C@_0CF@HKBC@Invalid?5fragment?5ID?5passed?5to?5li@ 1007b360     shader_LinkerDemo.obj
 0003:00001388       ??_C@_0BI@PMFN@Linker?5has?5no?5fragments?$AA@ 1007b388     shader_LinkerDemo.obj
 0003:000013a0       ??_C@_0CG@NNDD@Too?5many?5temporary?5registers?5req@ 1007b3a0     shader_LinkerDemo.obj
 0003:000013c8       ??_C@_0BP@OCEG@Too?5many?5vertex?5slots?5required?$AA@ 1007b3c8     shader_LinkerDemo.obj
 0003:000013e8       ??_C@_0BM@FBNC@Too?5many?5constants?5required?$AA@ 1007b3e8     shader_LinkerDemo.obj
 0003:00001404       ??_C@_0CE@EHCI@Too?5many?5address?5registers?5requi@ 1007b404     shader_LinkerDemo.obj
 0003:00001428       ??_C@_0BG@BBEG@Too?5many?5instructions?$AA@ 1007b428     shader_LinkerDemo.obj
 0003:00001440       ??_C@_0BF@NANF@Linker?5out?5of?5memory?$AA@ 1007b440     shader_LinkerDemo.obj
 0003:00001458       ??_C@_01KDFD@m?$AA@        1007b458     shader_LinkerDemo.obj
 0003:0000145c       ??_C@_01KOI@x?$AA@         1007b45c     shader_LinkerDemo.obj
 0003:00001460       ??_C@_0CB@MFJK@Model?5Files?5?$CI?$CK?4x?0?5?$CK?4m?$CJ?$AA?$CK?4x?$DL?$CK?4m?$AA?$AA@ 1007b460     shader_LinkerDemo.obj
 0003:00001484       ??_C@_0BAH@OAOD@?5Help?5?3?5F1?5?9?5Help?5?6?6?5Home?5?9?5Rese@ 1007b484     shader_LinkerDemo.obj
 0003:0000158c       ??_C@_04GNHP@Help?$AA@     1007b58c     shader_LinkerDemo.obj
 0003:00001594       ??_C@_0BJ@LFKM@Failed?5to?5create?5shader?5?$AA@ 1007b594     shader_LinkerDemo.obj
 0003:000015b0       ??_C@_0CK@HPGF@Failed?5to?5allocate?5memory?5to?5loa@ 1007b5b0     shader_LinkerDemo.obj
 0003:000015dc       ??_C@_07OIPB@?2media?2?$AA@ 1007b5dc     shader_LinkerDemo.obj
 0003:000015e8       ?_D3DX_D3DRM_XTEMPLATES@@3PAEA 1007b5e8     d3dx8:loadx.obj
 0003:000022b8       ?x_rgTemplateIds@@3PAPBU_GUID@@A 1007c2b8     d3dx8:loadx.obj
 0003:000022c0       ?x_rgPMTemplateIds@@3PAPBU_GUID@@A 1007c2c0     d3dx8:loadx.obj
 0003:00002788       ?d3dxasm_lhs@@3PAFA        1007c788     d3dx8:cd3dxassembler.obj
 0003:000027f0       ?d3dxasm_len@@3PAFA        1007c7f0     d3dx8:cd3dxassembler.obj
 0003:00002858       ?d3dxasm_defred@@3PAFA     1007c858     d3dx8:cd3dxassembler.obj
 0003:0000291c       ?d3dxasm_dgoto@@3PAFA      1007c91c     d3dx8:cd3dxassembler.obj
 0003:00002948       ?d3dxasm_sindex@@3PAFA     1007c948     d3dx8:cd3dxassembler.obj
 0003:00002a10       ?d3dxasm_rindex@@3PAFA     1007ca10     d3dx8:cd3dxassembler.obj
 0003:00002ad4       ?d3dxasm_gindex@@3PAFA     1007cad4     d3dx8:cd3dxassembler.obj
 0003:00002b00       ?d3dxasm_table@@3PAFA      1007cb00     d3dx8:cd3dxassembler.obj
 0003:00002d10       ?d3dxasm_check@@3PAFA      1007cd10     d3dx8:cd3dxassembler.obj
 0003:0000306c       ?vfMMXMachine@D3DX@@3EA    1007d06c     d3dx8:jutils.obj
 0003:000030a0       ?z_errmsg@D3DX@@3PAPBDA    1007d0a0     d3dx8:zutil.obj
 0003:000041d0       ?inflate_mask@D3DX@@3PAIA  1007e1d0     d3dx8:infutil.obj
 0003:0000423c       ?ms_Singleton@?$Singleton@VNVResourceManager@nv_objects@@@@0PAVNVResourceManager@nv_objects@@A 1007e23c     lightobjects.obj
 0003:00004240       ?ms_Singleton@?$Singleton@VNVStateManager@nv_objects@@@@0PAVNVStateManager@nv_objects@@A 1007e240     lightobjects.obj
 0003:00004244       ?_Nil@?$_Tree@W4_D3DTEXTURESTAGESTATETYPE@@U?$pair@$$CBW4_D3DTEXTURESTAGESTATETYPE@@VNVTextureStageState@nv_objects@@@std@@U_Kfn@?$map@W4_D3DTEXTURESTAGESTATETYPE@@VNVTextureStageState@nv_objects@@U?$less@W4_D3DTEXTURESTAGESTATETYPE@@@std@@V?$allocator@VNVTextureStageState@nv_objects@@@5@@3@U?$less@W4_D3DTEXTURESTAGESTATETYPE@@@3@V?$allocator@VNVTextureStageState@nv_objects@@@3@@std@@1PAU_Node@12@A 1007e244     lightobjects.obj
 0003:00004248       ?_Nil@?$_Tree@W4_D3DRENDERSTATETYPE@@U?$pair@$$CBW4_D3DRENDERSTATETYPE@@VNVRenderState@nv_objects@@@std@@U_Kfn@?$map@W4_D3DRENDERSTATETYPE@@VNVRenderState@nv_objects@@U?$less@W4_D3DRENDERSTATETYPE@@@std@@V?$allocator@VNVRenderState@nv_objects@@@5@@3@U?$less@W4_D3DRENDERSTATETYPE@@@3@V?$allocator@VNVRenderState@nv_objects@@@3@@std@@1PAU_Node@12@A 1007e248     lightobjects.obj
 0003:0000424c       ?_Nil@?$_Tree@KU?$pair@$$CBKPAVNVBaseResource@nv_objects@@@std@@U_Kfn@?$map@KPAVNVBaseResource@nv_objects@@U?$less@K@std@@V?$allocator@PAVNVBaseResource@nv_objects@@@4@@2@U?$less@K@2@V?$allocator@PAVNVBaseResource@nv_objects@@@2@@std@@1PAU_Node@12@A 1007e24c     lightobjects.obj
 0003:00004250       ?_Nil@?$_Tree@$$CBV?$basic_string@DU?$char_traits@D@std@@V?$allocator@D@2@@std@@U?$pair@$$CBV?$basic_string@DU?$char_traits@D@std@@V?$allocator@D@2@@std@@VNVConstant@nv_objects@@@2@U_Kfn@?$map@$$CBV?$basic_string@DU?$char_traits@D@std@@V?$allocator@D@2@@std@@VNVConstant@nv_objects@@U?$less@$$CBV?$basic_string@DU?$char_traits@D@std@@V?$allocator@D@2@@std@@@2@V?$allocator@VNVConstant@nv_objects@@@2@@2@U?$less@$$CBV?$basic_string@DU?$char_traits@D@std@@V?$allocator@D@2@@std@@@2@V?$allocator@VNVConstant@nv_objects@@@2@@std@@1PAU_Node@12@A 1007e250     lightobjects.obj
 0003:00004254       ?_Nilrefs@?$_Tree@$$CBV?$basic_string@DU?$char_traits@D@std@@V?$allocator@D@2@@std@@U?$pair@$$CBV?$basic_string@DU?$char_traits@D@std@@V?$allocator@D@2@@std@@VNVComplexMeshVertexData@nv_objects@@@2@U_Kfn@?$map@$$CBV?$basic_string@DU?$char_traits@D@std@@V?$allocator@D@2@@std@@VNVComplexMeshVertexData@nv_objects@@U?$less@$$CBV?$basic_string@DU?$char_traits@D@std@@V?$allocator@D@2@@std@@@2@V?$allocator@VNVComplexMeshVertexData@nv_objects@@@2@@2@U?$less@$$CBV?$basic_string@DU?$char_traits@D@std@@V?$allocator@D@2@@std@@@2@V?$allocator@VNVComplexMeshVertexData@nv_objects@@@2@@std@@1IA 1007e254     nvcomplexmesh.obj
 0003:00004258       ?_Nil@?$_Tree@$$CBV?$basic_string@DU?$char_traits@D@std@@V?$allocator@D@2@@std@@U?$pair@$$CBV?$basic_string@DU?$char_traits@D@std@@V?$allocator@D@2@@std@@VNVComplexMeshVertexData@nv_objects@@@2@U_Kfn@?$map@$$CBV?$basic_string@DU?$char_traits@D@std@@V?$allocator@D@2@@std@@VNVComplexMeshVertexData@nv_objects@@U?$less@$$CBV?$basic_string@DU?$char_traits@D@std@@V?$allocator@D@2@@std@@@2@V?$allocator@VNVComplexMeshVertexData@nv_objects@@@2@@2@U?$less@$$CBV?$basic_string@DU?$char_traits@D@std@@V?$allocator@D@2@@std@@@2@V?$allocator@VNVComplexMeshVertexData@nv_objects@@@2@@std@@1PAU_Node@12@A 1007e258     nvcomplexmesh.obj
 0003:0000425c       ?_Nilrefs@?$_Tree@KU?$pair@$$CBKK@std@@U_Kfn@?$map@KKU?$less@K@std@@V?$allocator@K@2@@2@U?$less@K@2@V?$allocator@K@2@@std@@1IA 1007e25c     nvcomplexmesh.obj
 0003:00004260       ?_Nil@?$_Tree@KU?$pair@$$CBKK@std@@U_Kfn@?$map@KKU?$less@K@std@@V?$allocator@K@2@@2@U?$less@K@2@V?$allocator@K@2@@std@@1PAU_Node@12@A 1007e260     nvcomplexmesh.obj
 0003:00004264       ?_Nilrefs@?$_Tree@$$CBV?$basic_string@DU?$char_traits@D@std@@V?$allocator@D@2@@std@@U?$pair@$$CBV?$basic_string@DU?$char_traits@D@std@@V?$allocator@D@2@@std@@VNVConstant@nv_objects@@@2@U_Kfn@?$map@$$CBV?$basic_string@DU?$char_traits@D@std@@V?$allocator@D@2@@std@@VNVConstant@nv_objects@@U?$less@$$CBV?$basic_string@DU?$char_traits@D@std@@V?$allocator@D@2@@std@@@2@V?$allocator@VNVConstant@nv_objects@@@2@@2@U?$less@$$CBV?$basic_string@DU?$char_traits@D@std@@V?$allocator@D@2@@std@@@2@V?$allocator@VNVConstant@nv_objects@@@2@@std@@1IA 1007e264     nvcomplexmesh.obj
 0003:00004268       ?_Nilrefs@?$_Tree@W4_D3DTEXTURESTAGESTATETYPE@@U?$pair@$$CBW4_D3DTEXTURESTAGESTATETYPE@@VNVTextureStageState@nv_objects@@@std@@U_Kfn@?$map@W4_D3DTEXTURESTAGESTATETYPE@@VNVTextureStageState@nv_objects@@U?$less@W4_D3DTEXTURESTAGESTATETYPE@@@std@@V?$allocator@VNVTextureStageState@nv_objects@@@5@@3@U?$less@W4_D3DTEXTURESTAGESTATETYPE@@@3@V?$allocator@VNVTextureStageState@nv_objects@@@3@@std@@1IA 1007e268     nvcomplexmesh.obj
 0003:0000426c       ?_Nilrefs@?$_Tree@W4_D3DRENDERSTATETYPE@@U?$pair@$$CBW4_D3DRENDERSTATETYPE@@VNVRenderState@nv_objects@@@std@@U_Kfn@?$map@W4_D3DRENDERSTATETYPE@@VNVRenderState@nv_objects@@U?$less@W4_D3DRENDERSTATETYPE@@@std@@V?$allocator@VNVRenderState@nv_objects@@@5@@3@U?$less@W4_D3DRENDERSTATETYPE@@@3@V?$allocator@VNVRenderState@nv_objects@@@3@@std@@1IA 1007e26c     nvcomplexmesh.obj
 0003:00004274       ?_Nil@?$_Tree@KKU_Kfn@?$set@KU?$less@K@std@@V?$allocator@K@2@@std@@U?$less@K@3@V?$allocator@K@3@@std@@1PAU_Node@12@A 1007e274     nvcomplexmesh.obj
 0003:00004290       ?strStartPath@effect_api@@3V?$basic_string@DU?$char_traits@D@std@@V?$allocator@D@2@@std@@A 1007e290     shader_LinkerDemo.obj
 0003:000042b4       ?g_pNVStateManager@@3PAVNVStateManager@nv_objects@@A 1007e2b4     shader_LinkerDemo.obj
 0003:000042b8       ?g_pNVResourceManager@@3PAVNVResourceManager@nv_objects@@A 1007e2b8     shader_LinkerDemo.obj
 0003:000042bc       ??_C@_00A@?$AA@            1007e2bc     shader_LinkerDemo.obj
 0003:000042c0       ?_Nilrefs@?$_Tree@VCLinkerConstantSlot@@U?$pair@$$CBVCLinkerConstantSlot@@K@std@@U_Kfn@?$map@VCLinkerConstantSlot@@KU?$less@VCLinkerConstantSlot@@@std@@V?$allocator@K@3@@3@U?$less@VCLinkerConstantSlot@@@3@V?$allocator@K@3@@std@@1IA 1007e2c0     shader_LinkerDemo.obj
 0003:000042c4       ?_Nil@?$_Tree@VCLinkerConstantSlot@@U?$pair@$$CBVCLinkerConstantSlot@@K@std@@U_Kfn@?$map@VCLinkerConstantSlot@@KU?$less@VCLinkerConstantSlot@@@std@@V?$allocator@K@3@@3@U?$less@VCLinkerConstantSlot@@@3@V?$allocator@K@3@@std@@1PAU_Node@12@A 1007e2c4     shader_LinkerDemo.obj
 0003:000042c8       ?_Nilrefs@?$_Tree@V?$EBStr@D@@U?$pair@$$CBV?$EBStr@D@@PAVEBProperty@@@std@@U_Kfn@?$map@V?$EBStr@D@@PAVEBProperty@@U?$less@V?$EBStr@D@@@std@@V?$allocator@PAVEBProperty@@@4@@3@U?$less@V?$EBStr@D@@@3@V?$allocator@PAVEBProperty@@@3@@std@@1IA 1007e2c8     shader_LinkerDemo.obj
 0003:000042cc       ?_Nil@?$_Tree@V?$EBStr@D@@U?$pair@$$CBV?$EBStr@D@@PAVEBProperty@@@std@@U_Kfn@?$map@V?$EBStr@D@@PAVEBProperty@@U?$less@V?$EBStr@D@@@std@@V?$allocator@PAVEBProperty@@@4@@3@U?$less@V?$EBStr@D@@@3@V?$allocator@PAVEBProperty@@@3@@std@@1PAU_Node@12@A 1007e2cc     shader_LinkerDemo.obj
 0003:000042d0       ?_Nilrefs@?$_Tree@KU?$pair@$$CBKPAVNVBaseResource@nv_objects@@@std@@U_Kfn@?$map@KPAVNVBaseResource@nv_objects@@U?$less@K@std@@V?$allocator@PAVNVBaseResource@nv_objects@@@4@@2@U?$less@K@2@V?$allocator@PAVNVBaseResource@nv_objects@@@2@@std@@1IA 1007e2d0     shader_LinkerDemo.obj
 0003:000042d4       ?_Nil@?$_Tree@V?$basic_string@DU?$char_traits@D@std@@V?$allocator@D@2@@std@@U?$pair@$$CBV?$basic_string@DU?$char_traits@D@std@@V?$allocator@D@2@@std@@K@2@U_Kfn@?$map@V?$basic_string@DU?$char_traits@D@std@@V?$allocator@D@2@@std@@KU?$less@V?$basic_string@DU?$char_traits@D@std@@V?$allocator@D@2@@std@@@2@V?$allocator@K@2@@2@U?$less@V?$basic_string@DU?$char_traits@D@std@@V?$allocator@D@2@@std@@@2@V?$allocator@K@2@@std@@1PAU_Node@12@A 1007e2d4     shader_LinkerDemo.obj
 0003:000042d8       ?_Nilrefs@?$_Tree@V?$basic_string@DU?$char_traits@D@std@@V?$allocator@D@2@@std@@U?$pair@$$CBV?$basic_string@DU?$char_traits@D@std@@V?$allocator@D@2@@std@@K@2@U_Kfn@?$map@V?$basic_string@DU?$char_traits@D@std@@V?$allocator@D@2@@std@@KU?$less@V?$basic_string@DU?$char_traits@D@std@@V?$allocator@D@2@@std@@@2@V?$allocator@K@2@@2@U?$less@V?$basic_string@DU?$char_traits@D@std@@V?$allocator@D@2@@std@@@2@V?$allocator@K@2@@std@@1IA 1007e2d8     shader_LinkerDemo.obj
 0003:000042dc       ?_Nil@?$_Tree@KU?$pair@$$CBKV?$basic_string@DU?$char_traits@D@std@@V?$allocator@D@2@@std@@@std@@U_Kfn@?$map@KV?$basic_string@DU?$char_traits@D@std@@V?$allocator@D@2@@std@@U?$less@K@2@V?$allocator@V?$basic_string@DU?$char_traits@D@std@@V?$allocator@D@2@@std@@@2@@2@U?$less@K@2@V?$allocator@V?$basic_string@DU?$char_traits@D@std@@V?$allocator@D@2@@std@@@2@@std@@1PAU_Node@12@A 1007e2dc     shader_LinkerDemo.obj
 0003:000042e0       ?_Nilrefs@?$_Tree@KU?$pair@$$CBKV?$basic_string@DU?$char_traits@D@std@@V?$allocator@D@2@@std@@@std@@U_Kfn@?$map@KV?$basic_string@DU?$char_traits@D@std@@V?$allocator@D@2@@std@@U?$less@K@2@V?$allocator@V?$basic_string@DU?$char_traits@D@std@@V?$allocator@D@2@@std@@@2@@2@U?$less@K@2@V?$allocator@V?$basic_string@DU?$char_traits@D@std@@V?$allocator@D@2@@std@@@2@@std@@1IA 1007e2e0     shader_LinkerDemo.obj
 0003:000042e4       ?_Nilrefs@?$_Tree@KKU_Kfn@?$set@KU?$less@K@std@@V?$allocator@K@2@@std@@U?$less@K@3@V?$allocator@K@3@@std@@1IA 1007e2e4     shader_LinkerDemo.obj
 0003:000042e8       ?d3dxasm_vs@@3PAHA         1007e2e8     d3dx8:cd3dxassembler.obj
 0003:00004ab8       ?d3dxasm_ss@@3PAFA         1007eab8     d3dx8:cd3dxassembler.obj
 0003:00004ea0       ?d3dxasm_lval@@3HA         1007eea0     d3dx8:cd3dxassembler.obj
 0003:00004ea4       ?d3dxasm_val@@3HA          1007eea4     d3dx8:cd3dxassembler.obj
 0003:00004ea8       ?d3dxasm_vsp@@3PAHA        1007eea8     d3dx8:cd3dxassembler.obj
 0003:00004eac       ?d3dxasm_ssp@@3PAFA        1007eeac     d3dx8:cd3dxassembler.obj
 0003:00004eb0       ?d3dxasm_char@@3HA         1007eeb0     d3dx8:cd3dxassembler.obj
 0003:00004eb4       ?d3dxasm_errflag@@3HA      1007eeb4     d3dx8:cd3dxassembler.obj
 0003:00004eb8       ?d3dxasm_nerrs@@3HA        1007eeb8     d3dx8:cd3dxassembler.obj
 0003:00004ebc       ?d3dxasm_debug@@3HA        1007eebc     d3dx8:cd3dxassembler.obj
 0003:00004ec0       ?s_pAsm@CD3DXAssembler@@2PAV1@A 1007eec0     d3dx8:cd3dxassembler.obj
 0003:00004ec8       ?s_pList@CD3DXText@@1PAV1@A 1007eec8     d3dx8:cd3dxtext.obj
 0003:00004edc       __adjust_fdiv              1007eedc     <common>
 0003:00004ee0       __pRawDllMain              1007eee0     <common>
 0003:00004ee4       ___onexitend               1007eee4     <common>
 0003:00004ee8       ___onexitbegin             1007eee8     <common>

 entry point at        0001:0006e95d

 Static symbols

 0001:00014570       _$E62                      10015570 f   shader_LinkerDemo.obj
 0001:00014580       _$E59                      10015580 f   shader_LinkerDemo.obj
 0001:00014660       _$E61                      10015660 f   shader_LinkerDemo.obj
 0001:00014670       _$E60                      10015670 f   shader_LinkerDemo.obj
 0001:000148a0       _$E65                      100158a0 f   shader_LinkerDemo.obj
 0001:000148b0       _$E64                      100158b0 f   shader_LinkerDemo.obj
 0001:0001ff50       _$E27                      10020f50 f   shader_LinkerDemo.obj
 0001:0001ff60       _$E24                      10020f60 f   shader_LinkerDemo.obj
 0001:0001ff70       _$E26                      10020f70 f   shader_LinkerDemo.obj
 0001:0001ff80       _$E25                      10020f80 f   shader_LinkerDemo.obj
 0001:0001ff90       _$E33                      10020f90 f   shader_LinkerDemo.obj
 0001:0001ffa0       _$E30                      10020fa0 f   shader_LinkerDemo.obj
 0001:0001ffb0       _$E32                      10020fb0 f   shader_LinkerDemo.obj
 0001:0001ffc0       _$E31                      10020fc0 f   shader_LinkerDemo.obj
 0001:00027360       _$E55                      10028360 f   shader_LinkerDemo.obj
 0001:00027370       _$E54                      10028370 f   shader_LinkerDemo.obj
 0001:00013a00       _$E25                      10014a00 f   nvcomplexmeshpass.obj
 0001:00013a10       _$E22                      10014a10 f   nvcomplexmeshpass.obj
 0001:00013a20       _$E24                      10014a20 f   nvcomplexmeshpass.obj
 0001:00013a30       _$E23                      10014a30 f   nvcomplexmeshpass.obj
 0001:00013a40       _$E31                      10014a40 f   nvcomplexmeshpass.obj
 0001:00013a50       _$E28                      10014a50 f   nvcomplexmeshpass.obj
 0001:00013a60       _$E30                      10014a60 f   nvcomplexmeshpass.obj
 0001:00013a70       _$E29                      10014a70 f   nvcomplexmeshpass.obj
 0001:0000aea0       _$E25                      1000bea0 f   nvcomplexmesh.obj
 0001:0000aeb0       _$E22                      1000beb0 f   nvcomplexmesh.obj
 0001:0000aec0       _$E24                      1000bec0 f   nvcomplexmesh.obj
 0001:0000aed0       _$E23                      1000bed0 f   nvcomplexmesh.obj
 0001:0000aee0       _$E31                      1000bee0 f   nvcomplexmesh.obj
 0001:0000aef0       _$E28                      1000bef0 f   nvcomplexmesh.obj
 0001:0000af00       _$E30                      1000bf00 f   nvcomplexmesh.obj
 0001:0000af10       _$E29                      1000bf10 f   nvcomplexmesh.obj
 0001:00000af0       _$E55                      10001af0 f   lightobjects.obj
 0001:00000b00       _$E54                      10001b00 f   lightobjects.obj
 0001:000027d0       _$E27                      100037d0 f   lightobjects.obj
 0001:000027e0       _$E24                      100037e0 f   lightobjects.obj
 0001:000027f0       _$E26                      100037f0 f   lightobjects.obj
 0001:00002800       _$E25                      10003800 f   lightobjects.obj
 0001:00002810       _$E33                      10003810 f   lightobjects.obj
 0001:00002820       _$E30                      10003820 f   lightobjects.obj
 0001:00002830       _$E32                      10003830 f   lightobjects.obj
 0001:00002840       _$E31                      10003840 f   lightobjects.obj
 0001:00000a40       _$E27                      10001a40 f   eb_property.obj
 0001:00000a50       _$E24                      10001a50 f   eb_property.obj
 0001:00000a60       _$E26                      10001a60 f   eb_property.obj
 0001:00000a70       _$E25                      10001a70 f   eb_property.obj
 0001:00000a80       _$E33                      10001a80 f   eb_property.obj
 0001:00000a90       _$E30                      10001a90 f   eb_property.obj
 0001:00000aa0       _$E32                      10001aa0 f   eb_property.obj
 0001:00000ab0       _$E31                      10001ab0 f   eb_property.obj
 0001:0006bee2       ?huft_build@D3DX@@YAHPAIIIPBI1PAPAUinflate_huft_s@1@0PAU21@00@Z 1006cee2 f   d3dx8:inftrees.obj
 0001:000699e3       ?select_ncolors@D3DX@@YAHPAUjpeg_decompress_struct@1@QAH@Z 1006a9e3 f   d3dx8:jquant1.obj
 0001:00069aae       ?output_value@D3DX@@YAHPAUjpeg_decompress_struct@1@HHH@Z 1006aaae f   d3dx8:jquant1.obj
 0001:00069ac7       ?largest_input_value@D3DX@@YAHPAUjpeg_decompress_struct@1@HHH@Z 1006aac7 f   d3dx8:jquant1.obj
 0001:00069ada       ?create_colormap@D3DX@@YAXPAUjpeg_decompress_struct@1@@Z 1006aada f   d3dx8:jquant1.obj
 0001:00069bf7       ?create_colorindex@D3DX@@YAXPAUjpeg_decompress_struct@1@@Z 1006abf7 f   d3dx8:jquant1.obj
 0001:00069d18       ?make_odither_array@D3DX@@YAPAY0BA@HPAUjpeg_decompress_struct@1@H@Z 1006ad18 f   d3dx8:jquant1.obj
 0001:00069d7a       ?create_odither_tables@D3DX@@YAXPAUjpeg_decompress_struct@1@@Z 1006ad7a f   d3dx8:jquant1.obj
 0001:00069dd3       ?color_quantize@D3DX@@YAXPAUjpeg_decompress_struct@1@PAPAE1H@Z 1006add3 f   d3dx8:jquant1.obj
 0001:00069e5b       ?color_quantize3@D3DX@@YAXPAUjpeg_decompress_struct@1@PAPAE1H@Z 1006ae5b f   d3dx8:jquant1.obj
 0001:00069ee8       ?quantize_ord_dither@D3DX@@YAXPAUjpeg_decompress_struct@1@PAPAE1H@Z 1006aee8 f   d3dx8:jquant1.obj
 0001:00069fd3       ?quantize3_ord_dither@D3DX@@YAXPAUjpeg_decompress_struct@1@PAPAE1H@Z 1006afd3 f   d3dx8:jquant1.obj
 0001:0006a0d2       ?quantize_fs_dither@D3DX@@YAXPAUjpeg_decompress_struct@1@PAPAE1H@Z 1006b0d2 f   d3dx8:jquant1.obj
 0001:0006a256       ?alloc_fs_workspace@D3DX@@YAXPAUjpeg_decompress_struct@1@@Z 1006b256 f   d3dx8:jquant1.obj
 0001:0006a28c       ?start_pass_1_quant@D3DX@@YAXPAUjpeg_decompress_struct@1@E@Z 1006b28c f   d3dx8:jquant1.obj
 0001:0006a354       ?finish_pass_1_quant@D3DX@@YAXPAUjpeg_decompress_struct@1@@Z 1006b354 f   d3dx8:jquant1.obj
 0001:0006a355       ?new_color_map_1_quant@D3DX@@YAXPAUjpeg_decompress_struct@1@@Z 1006b355 f   d3dx8:jquant1.obj
 0001:000689bc       ?prescan_quantize@D3DX@@YAXPAUjpeg_decompress_struct@1@PAPAE1H@Z 100699bc f   d3dx8:jquant2.obj
 0001:00068a28       ?find_biggest_color_pop@D3DX@@YAPAUbox@1@PAU21@H@Z 10069a28 f   d3dx8:jquant2.obj
 0001:00068a51       ?find_biggest_volume@D3DX@@YAPAUbox@1@PAU21@H@Z 10069a51 f   d3dx8:jquant2.obj
 0001:00068a74       ?update_box@D3DX@@YAXPAUjpeg_decompress_struct@1@PAUbox@1@@Z 10069a74 f   d3dx8:jquant2.obj
 0001:00068dac       ?median_cut@D3DX@@YAHPAUjpeg_decompress_struct@1@PAUbox@1@HH@Z 10069dac f   d3dx8:jquant2.obj
 0001:00068ec6       ?compute_color@D3DX@@YAXPAUjpeg_decompress_struct@1@PAUbox@1@H@Z 10069ec6 f   d3dx8:jquant2.obj
 0001:00068ffe       ?select_colors@D3DX@@YAXPAUjpeg_decompress_struct@1@H@Z 10069ffe f   d3dx8:jquant2.obj
 0001:0006908b       ?find_nearby_colors@D3DX@@YAHPAUjpeg_decompress_struct@1@HHHQAE@Z 1006a08b f   d3dx8:jquant2.obj
 0001:0006920b       ?find_best_colors@D3DX@@YAXPAUjpeg_decompress_struct@1@HHHHQAE1@Z 1006a20b f   d3dx8:jquant2.obj
 0001:00069325       ?fill_inverse_cmap@D3DX@@YAXPAUjpeg_decompress_struct@1@HHH@Z 1006a325 f   d3dx8:jquant2.obj
 0001:000693f5       ?pass2_no_dither@D3DX@@YAXPAUjpeg_decompress_struct@1@PAPAE1H@Z 1006a3f5 f   d3dx8:jquant2.obj
 0001:0006949e       ?pass2_fs_dither@D3DX@@YAXPAUjpeg_decompress_struct@1@PAPAE1H@Z 1006a49e f   d3dx8:jquant2.obj
 0001:0006970c       ?init_error_limit@D3DX@@YAXPAUjpeg_decompress_struct@1@@Z 1006a70c f   d3dx8:jquant2.obj
 0001:0006979c       ?finish_pass1@D3DX@@YAXPAUjpeg_decompress_struct@1@@Z 1006a79c f   d3dx8:jquant2.obj
 0001:000697be       ?finish_pass2@D3DX@@YAXPAUjpeg_decompress_struct@1@@Z 1006a7be f   d3dx8:jquant2.obj
 0001:000697bf       ?start_pass_2_quant@D3DX@@YAXPAUjpeg_decompress_struct@1@E@Z 1006a7bf f   d3dx8:jquant2.obj
 0001:000698c1       ?new_color_map_2_quant@D3DX@@YAXPAUjpeg_decompress_struct@1@@Z 1006a8c1 f   d3dx8:jquant2.obj
 0001:0006846f       ?build_ycc_rgb_table@D3DX@@YAXPAUjpeg_decompress_struct@1@@Z 1006946f f   d3dx8:jdmerge.obj
 0001:0006851f       ?start_pass_merged_upsample@D3DX@@YAXPAUjpeg_decompress_struct@1@@Z 1006951f f   d3dx8:jdmerge.obj
 0001:00068534       ?merged_2v_upsample@D3DX@@YAXPAUjpeg_decompress_struct@1@PAPAPAEPAIIPAPAE2I@Z 10069534 f   d3dx8:jdmerge.obj
 0001:000685da       ?merged_1v_upsample@D3DX@@YAXPAUjpeg_decompress_struct@1@PAPAPAEPAIIPAPAE2I@Z 100695da f   d3dx8:jdmerge.obj
 0001:0006860b       ?h2v1_merged_upsample@D3DX@@YAXPAUjpeg_decompress_struct@1@PAPAPAEIPAPAE@Z 1006960b f   d3dx8:jdmerge.obj
 0001:00068761       ?h2v2_merged_upsample@D3DX@@YAXPAUjpeg_decompress_struct@1@PAPAPAEIPAPAE@Z 10069761 f   d3dx8:jdmerge.obj
 0001:00067b0d       ?build_ycc_rgb_table@D3DX@@YAXPAUjpeg_decompress_struct@1@@Z 10068b0d f   d3dx8:jdcolor.obj
 0001:00067bbd       ?null_convert@D3DX@@YAXPAUjpeg_decompress_struct@1@PAPAPAEIPAPAEH@Z 10068bbd f   d3dx8:jdcolor.obj
 0001:00067c27       ?grayscale_convert@D3DX@@YAXPAUjpeg_decompress_struct@1@PAPAPAEIPAPAEH@Z 10068c27 f   d3dx8:jdcolor.obj
 0001:00067c4a       ?ycck_cmyk_convert@D3DX@@YAXPAUjpeg_decompress_struct@1@PAPAPAEIPAPAEH@Z 10068c4a f   d3dx8:jdcolor.obj
 0001:00067d7c       ?start_pass_dcolor@D3DX@@YAXPAUjpeg_decompress_struct@1@@Z 10068d7c f   d3dx8:jdcolor.obj
 0001:00068130       ?ycc_rgb_convert@D3DX@@YAXPAUjpeg_decompress_struct@1@PAPAPAEIPAPAEH@Z 10069130 f   d3dx8:jdcolor.obj
 0001:0006750f       ?start_pass_upsample@D3DX@@YAXPAUjpeg_decompress_struct@1@@Z 1006850f f   d3dx8:jdsample.obj
 0001:00067529       ?sep_upsample@D3DX@@YAXPAUjpeg_decompress_struct@1@PAPAPAEPAIIPAPAE2I@Z 10068529 f   d3dx8:jdsample.obj
 0001:000675ef       ?fullsize_upsample@D3DX@@YAXPAUjpeg_decompress_struct@1@PAUjpeg_component_info@1@PAPAEPAPAPAE@Z 100685ef f   d3dx8:jdsample.obj
 0001:000675fa       ?noop_upsample@D3DX@@YAXPAUjpeg_decompress_struct@1@PAUjpeg_component_info@1@PAPAEPAPAPAE@Z 100685fa f   d3dx8:jdsample.obj
 0001:00067602       ?int_upsample@D3DX@@YAXPAUjpeg_decompress_struct@1@PAUjpeg_component_info@1@PAPAEPAPAPAE@Z 10068602 f   d3dx8:jdsample.obj
 0001:000676e1       ?h2v1_upsample@D3DX@@YAXPAUjpeg_decompress_struct@1@PAUjpeg_component_info@1@PAPAEPAPAPAE@Z 100686e1 f   d3dx8:jdsample.obj
 0001:00067738       ?h2v2_upsample@D3DX@@YAXPAUjpeg_decompress_struct@1@PAUjpeg_component_info@1@PAPAEPAPAPAE@Z 10068738 f   d3dx8:jdsample.obj
 0001:000677a2       ?h2v1_fancy_upsample@D3DX@@YAXPAUjpeg_decompress_struct@1@PAUjpeg_component_info@1@PAPAEPAPAPAE@Z 100687a2 f   d3dx8:jdsample.obj
 0001:00067845       ?h2v2_fancy_upsample@D3DX@@YAXPAUjpeg_decompress_struct@1@PAUjpeg_component_info@1@PAPAEPAPAPAE@Z 10068845 f   d3dx8:jdsample.obj
 0001:00067265       ?post_process_1pass@D3DX@@YAXPAUjpeg_decompress_struct@1@PAPAPAEPAIIPAPAE2I@Z 10068265 f   d3dx8:jdpostct.obj
 0001:000672ca       ?post_process_prepass@D3DX@@YAXPAUjpeg_decompress_struct@1@PAPAPAEPAIIPAPAE2I@Z 100682ca f   d3dx8:jdpostct.obj
 0001:0006735a       ?post_process_2pass@D3DX@@YAXPAUjpeg_decompress_struct@1@PAPAPAEPAIIPAPAE2I@Z 1006835a f   d3dx8:jdpostct.obj
 0001:000673e6       ?start_pass_dpost@D3DX@@YAXPAUjpeg_decompress_struct@1@W4J_BUF_MODE@1@@Z 100683e6 f   d3dx8:jdpostct.obj
 0001:0006703a       ?start_pass@D3DX@@YAXPAUjpeg_decompress_struct@1@@Z 1006803a f   d3dx8:jddctmgr.obj
 0001:00066461       ?process_restart@D3DX@@YAEPAUjpeg_decompress_struct@1@@Z 10067461 f   d3dx8:jdphuff.obj
 0001:000664bc       ?decode_mcu_DC_first@D3DX@@YAEPAUjpeg_decompress_struct@1@PAPAY0EA@F@Z 100674bc f   d3dx8:jdphuff.obj
 0001:000666b9       ?decode_mcu_AC_first@D3DX@@YAEPAUjpeg_decompress_struct@1@PAPAY0EA@F@Z 100676b9 f   d3dx8:jdphuff.obj
 0001:000668e6       ?decode_mcu_DC_refine@D3DX@@YAEPAUjpeg_decompress_struct@1@PAPAY0EA@F@Z 100678e6 f   d3dx8:jdphuff.obj
 0001:000669c8       ?decode_mcu_AC_refine@D3DX@@YAEPAUjpeg_decompress_struct@1@PAPAY0EA@F@Z 100679c8 f   d3dx8:jdphuff.obj
 0001:00066d36       ?start_pass_phuff_decoder@D3DX@@YAXPAUjpeg_decompress_struct@1@@Z 10067d36 f   d3dx8:jdphuff.obj
 0001:00065ecd       ?process_restart@D3DX@@YAEPAUjpeg_decompress_struct@1@@Z 10066ecd f   d3dx8:jdhuff.obj
 0001:00065f2b       ?decode_mcu@D3DX@@YAEPAUjpeg_decompress_struct@1@PAPAY0EA@F@Z 10066f2b f   d3dx8:jdhuff.obj
 0001:000662f8       ?start_pass_huff_decoder@D3DX@@YAXPAUjpeg_decompress_struct@1@@Z 100672f8 f   d3dx8:jdhuff.obj
 0001:00064efb       ?start_iMCU_row@D3DX@@YAXPAUjpeg_decompress_struct@1@@Z 10065efb f   d3dx8:jdcoefct.obj
 0001:00064f3a       ?start_input_pass@D3DX@@YAXPAUjpeg_decompress_struct@1@@Z 10065f3a f   d3dx8:jdcoefct.obj
 0001:00064f4a       ?decompress_onepass@D3DX@@YAHPAUjpeg_decompress_struct@1@PAPAPAE@Z 10065f4a f   d3dx8:jdcoefct.obj
 0001:00065124       ?dummy_consume_data@D3DX@@YAHPAUjpeg_decompress_struct@1@@Z 10066124 f   d3dx8:jdcoefct.obj
 0001:00065127       ?consume_data@D3DX@@YAHPAUjpeg_decompress_struct@1@@Z 10066127 f   d3dx8:jdcoefct.obj
 0001:000652c6       ?decompress_data@D3DX@@YAHPAUjpeg_decompress_struct@1@PAPAPAE@Z 100662c6 f   d3dx8:jdcoefct.obj
 0001:0006542c       ?smoothing_ok@D3DX@@YAEPAUjpeg_decompress_struct@1@@Z 1006642c f   d3dx8:jdcoefct.obj
 0001:0006550f       ?decompress_smooth_data@D3DX@@YAHPAUjpeg_decompress_struct@1@PAPAPAE@Z 1006650f f   d3dx8:jdcoefct.obj
 0001:00065a27       ?start_output_pass@D3DX@@YAXPAUjpeg_decompress_struct@1@@Z 10066a27 f   d3dx8:jdcoefct.obj
 0001:000648ea       ?alloc_funny_pointers@D3DX@@YAXPAUjpeg_decompress_struct@1@@Z 100658ea f   d3dx8:jdmainct.obj
 0001:00064992       ?make_funny_pointers@D3DX@@YAXPAUjpeg_decompress_struct@1@@Z 10065992 f   d3dx8:jdmainct.obj
 0001:00064ac3       ?set_wraparound_pointers@D3DX@@YAXPAUjpeg_decompress_struct@1@@Z 10065ac3 f   d3dx8:jdmainct.obj
 0001:00064b97       ?set_bottom_pointers@D3DX@@YAXPAUjpeg_decompress_struct@1@@Z 10065b97 f   d3dx8:jdmainct.obj
 0001:00064c2d       ?process_data_simple_main@D3DX@@YAXPAUjpeg_decompress_struct@1@PAPAEPAII@Z 10065c2d f   d3dx8:jdmainct.obj
 0001:00064c95       ?process_data_context_main@D3DX@@YAXPAUjpeg_decompress_struct@1@PAPAEPAII@Z 10065c95 f   d3dx8:jdmainct.obj
 0001:00064d9d       ?process_data_crank_post@D3DX@@YAXPAUjpeg_decompress_struct@1@PAPAEPAII@Z 10065d9d f   d3dx8:jdmainct.obj
 0001:00064dc0       ?start_pass_main@D3DX@@YAXPAUjpeg_decompress_struct@1@W4J_BUF_MODE@1@@Z 10065dc0 f   d3dx8:jdmainct.obj
 0001:00062725       ?use_merged_upsample@D3DX@@YAEPAUjpeg_decompress_struct@1@@Z 10063725 f   d3dx8:jdmaster.obj
 0001:00062985       ?prepare_range_limit_table@D3DX@@YAXPAUjpeg_decompress_struct@1@@Z 10063985 f   d3dx8:jdmaster.obj
 0001:000629f4       ?master_selection@D3DX@@YAXPAUjpeg_decompress_struct@1@@Z 100639f4 f   d3dx8:jdmaster.obj
 0001:00062ba1       ?prepare_for_output_pass@D3DX@@YAXPAUjpeg_decompress_struct@1@@Z 10063ba1 f   d3dx8:jdmaster.obj
 0001:00062cce       ?finish_output_pass@D3DX@@YAXPAUjpeg_decompress_struct@1@@Z 10063cce f   d3dx8:jdmaster.obj
 0001:00061c87       ?out_of_memory@D3DX@@YAXPAUjpeg_common_struct@1@H@Z 10062c87 f   d3dx8:jmemmgr.obj
 0001:00061c9c       ?alloc_small@D3DX@@YAPAXPAUjpeg_common_struct@1@HI@Z 10062c9c f   d3dx8:jmemmgr.obj
 0001:00061d98       ?alloc_large@D3DX@@YAPAXPAUjpeg_common_struct@1@HI@Z 10062d98 f   d3dx8:jmemmgr.obj
 0001:00061e26       ?alloc_sarray@D3DX@@YAPAPAEPAUjpeg_common_struct@1@HII@Z 10062e26 f   d3dx8:jmemmgr.obj
 0001:00061eb8       ?alloc_barray@D3DX@@YAPAPAY0EA@FPAUjpeg_common_struct@1@HII@Z 10062eb8 f   d3dx8:jmemmgr.obj
 0001:00061f56       ?request_virt_sarray@D3DX@@YAPAUjvirt_sarray_control@1@PAUjpeg_common_struct@1@HEIII@Z 10062f56 f   d3dx8:jmemmgr.obj
 0001:00061fb7       ?request_virt_barray@D3DX@@YAPAUjvirt_barray_control@1@PAUjpeg_common_struct@1@HEIII@Z 10062fb7 f   d3dx8:jmemmgr.obj
 0001:00062018       ?realize_virt_arrays@D3DX@@YAXPAUjpeg_common_struct@1@@Z 10063018 f   d3dx8:jmemmgr.obj
 0001:00062197       ?do_sarray_io@D3DX@@YAXPAUjpeg_common_struct@1@PAUjvirt_sarray_control@1@E@Z 10063197 f   d3dx8:jmemmgr.obj
 0001:0006221f       ?do_barray_io@D3DX@@YAXPAUjpeg_common_struct@1@PAUjvirt_barray_control@1@E@Z 1006321f f   d3dx8:jmemmgr.obj
 0001:000622aa       ?access_virt_sarray@D3DX@@YAPAPAEPAUjpeg_common_struct@1@PAUjvirt_sarray_control@1@IIE@Z 100632aa f   d3dx8:jmemmgr.obj
 0001:000623c8       ?access_virt_barray@D3DX@@YAPAPAY0EA@FPAUjpeg_common_struct@1@PAUjvirt_barray_control@1@IIE@Z 100633c8 f   d3dx8:jmemmgr.obj
 0001:000624eb       ?free_pool@D3DX@@YAXPAUjpeg_common_struct@1@H@Z 100634eb f   d3dx8:jmemmgr.obj
 0001:000625cc       ?self_destruct@D3DX@@YAXPAUjpeg_common_struct@1@@Z 100635cc f   d3dx8:jmemmgr.obj
 0001:0006176e       ?initial_setup@D3DX@@YAXPAUjpeg_decompress_struct@1@@Z 1006276e f   d3dx8:jdinput.obj
 0001:00061929       ?per_scan_setup@D3DX@@YAXPAUjpeg_decompress_struct@1@@Z 10062929 f   d3dx8:jdinput.obj
 0001:00061a9f       ?latch_quant_tables@D3DX@@YAXPAUjpeg_decompress_struct@1@@Z 10062a9f f   d3dx8:jdinput.obj
 0001:00061b31       ?start_input_pass@D3DX@@YAXPAUjpeg_decompress_struct@1@@Z 10062b31 f   d3dx8:jdinput.obj
 0001:00061b6b       ?consume_markers@D3DX@@YAHPAUjpeg_decompress_struct@1@@Z 10062b6b f   d3dx8:jdinput.obj
 0001:00061bfe       ?reset_input_controller@D3DX@@YAXPAUjpeg_decompress_struct@1@@Z 10062bfe f   d3dx8:jdinput.obj
 0001:00061c35       ?finish_input_pass@D3DX@@YAXPAUjpeg_decompress_struct@1@@Z 10062c35 f   d3dx8:jdinput.obj
 0001:00060a41       ?ColorToFcolor@@YAXPAUS3TC_COLOR@@PAUFCOLOR@@@Z 10061a41 f   d3dx8:s3tc.obj
 0001:00060a73       ?FcolorToColor@@YAXPAUFCOLOR@@PAUS3TC_COLOR@@@Z 10061a73 f   d3dx8:s3tc.obj
 0001:00060aa8       ?ColorToRGB@@YAXPAUS3TC_COLOR@@PAG@Z 10061aa8 f   d3dx8:s3tc.obj
 0001:00060ad8       ?RGBToColor@@YAXPAGPAUS3TC_COLOR@@@Z 10061ad8 f   d3dx8:s3tc.obj
 0001:00060b25       ?Square3x3@@YAXQAY02M0@Z   10061b25 f   d3dx8:s3tc.obj
 0001:00060bc4       ?Quantize@@YAXPAUFCOLOR@@0PAUS3TCBlockRGB@@H@Z 10061bc4 f   d3dx8:s3tc.obj
 0001:00060c4f       ?ClipExtrema@@YAXPAUFCOLOR@@0@Z 10061c4f f   d3dx8:s3tc.obj
 0001:00060d81       ?AllSame@@YAXPAUS3TC_COLOR@@PAUS3TCBlockRGB@@G@Z 10061d81 f   d3dx8:s3tc.obj
 0001:0005d9be       ?png_format_buffer@D3DX@@YAXPAUpng_struct_def@1@PADPBD@Z 1005e9be f   d3dx8:pngerror.obj
 0001:0005da45       ?png_default_error@D3DX@@YAXPAUpng_struct_def@1@PBD@Z 1005ea45 f   d3dx8:pngerror.obj
 0001:0005da50       ?png_default_warning@D3DX@@YAXPAUpng_struct_def@1@PBD@Z 1005ea50 f   d3dx8:pngerror.obj
 0001:0005d861       ?error_exit@D3DX@@YAXPAUjpeg_common_struct@1@@Z 1005e861 f   d3dx8:jerror.obj
 0001:0005d87c       ?output_message@D3DX@@YAXPAUjpeg_common_struct@1@@Z 1005e87c f   d3dx8:jerror.obj
 0001:0005d899       ?emit_message@D3DX@@YAXPAUjpeg_common_struct@1@H@Z 1005e899 f   d3dx8:jerror.obj
 0001:0005d8ca       ?format_message@D3DX@@YAXPAUjpeg_common_struct@1@PAD@Z 1005e8ca f   d3dx8:jerror.obj
 0001:0005d961       ?reset_error_mgr@D3DX@@YAXPAUjpeg_common_struct@1@@Z 1005e961 f   d3dx8:jerror.obj
 0001:0005c112       ?get_soi@D3DX@@YAEPAUjpeg_decompress_struct@1@@Z 1005d112 f   d3dx8:jdmarker.obj
 0001:0005c1a0       ?get_sof@D3DX@@YAEPAUjpeg_decompress_struct@1@EE@Z 1005d1a0 f   d3dx8:jdmarker.obj
 0001:0005c49b       ?get_sos@D3DX@@YAEPAUjpeg_decompress_struct@1@@Z 1005d49b f   d3dx8:jdmarker.obj
 0001:0005c784       ?get_app0@D3DX@@YAEPAUjpeg_decompress_struct@1@@Z 1005d784 f   d3dx8:jdmarker.obj
 0001:0005c9c0       ?get_app14@D3DX@@YAEPAUjpeg_decompress_struct@1@@Z 1005d9c0 f   d3dx8:jdmarker.obj
 0001:0005cb3a       ?get_dac@D3DX@@YAEPAUjpeg_decompress_struct@1@@Z 1005db3a f   d3dx8:jdmarker.obj
 0001:0005cc91       ?get_dht@D3DX@@YAEPAUjpeg_decompress_struct@1@@Z 1005dc91 f   d3dx8:jdmarker.obj
 0001:0005cf25       ?get_dqt@D3DX@@YAEPAUjpeg_decompress_struct@1@@Z 1005df25 f   d3dx8:jdmarker.obj
 0001:0005d16f       ?get_dri@D3DX@@YAEPAUjpeg_decompress_struct@1@@Z 1005e16f f   d3dx8:jdmarker.obj
 0001:0005d24e       ?skip_variable@D3DX@@YAEPAUjpeg_decompress_struct@1@@Z 1005e24e f   d3dx8:jdmarker.obj
 0001:0005d2ea       ?next_marker@D3DX@@YAEPAUjpeg_decompress_struct@1@@Z 1005e2ea f   d3dx8:jdmarker.obj
 0001:0005d3c1       ?first_marker@D3DX@@YAEPAUjpeg_decompress_struct@1@@Z 1005e3c1 f   d3dx8:jdmarker.obj
 0001:0005d459       ?read_markers@D3DX@@YAHPAUjpeg_decompress_struct@1@@Z 1005e459 f   d3dx8:jdmarker.obj
 0001:0005d64d       ?read_restart_marker@D3DX@@YAEPAUjpeg_decompress_struct@1@@Z 1005e64d f   d3dx8:jdmarker.obj
 0001:0005d7ba       ?reset_marker_reader@D3DX@@YAXPAUjpeg_decompress_struct@1@@Z 1005e7ba f   d3dx8:jdmarker.obj
 0001:0005bdb3       ?output_pass_setup@D3DX@@YAEPAUjpeg_decompress_struct@1@@Z 1005cdb3 f   d3dx8:jdapistd.obj
 0001:0005ba26       ?default_decompress_parms@D3DX@@YAXPAUjpeg_decompress_struct@1@@Z 1005ca26 f   d3dx8:jdapimin.obj
 0001:00057e9e       ?F2IBegin@@YAXXZ           10058e9e f   d3dx8:cd3dxcodec.obj
 0001:00057ec1       ?F2I@@YAHM@Z               10058ec1 f   d3dx8:cd3dxcodec.obj
 0001:00057ed0       ?F2IEnd@@YAXXZ             10058ed0 f   d3dx8:cd3dxcodec.obj
 0001:00055b86       ?d3dx_jpeg_error_exit@@YAXPAUjpeg_common_struct@D3DX@@@Z 10056b86 f   d3dx8:cd3dximage.obj
 0001:00055ba2       ?d3dx_jpeg_ignore_message@@YAXPAUjpeg_common_struct@D3DX@@@Z 10056ba2 f   d3dx8:cd3dximage.obj
 0001:00055ba3       ?d3dx_jpeg_output_message@@YAXPAUjpeg_common_struct@D3DX@@@Z 10056ba3 f   d3dx8:cd3dximage.obj
 0001:00055bc0       ?d3dx_jpeg_init_source@@YAXPAUjpeg_decompress_struct@D3DX@@@Z 10056bc0 f   d3dx8:cd3dximage.obj
 0001:00055bc1       ?d3dx_jpeg_fill_input_buffer@@YAEPAUjpeg_decompress_struct@D3DX@@@Z 10056bc1 f   d3dx8:cd3dximage.obj
 0001:00055bd6       ?d3dx_jpeg_skip_input_data@@YAXPAUjpeg_decompress_struct@D3DX@@J@Z 10056bd6 f   d3dx8:cd3dximage.obj
 0001:00055be7       ?d3dx_jpeg_term_source@@YAXPAUjpeg_decompress_struct@D3DX@@@Z 10056be7 f   d3dx8:cd3dximage.obj
 0001:00056537       ?d3dx_png_read_fn@@YAXPAUpng_struct_def@D3DX@@PAEI@Z 10057537 f   d3dx8:cd3dximage.obj
 0001:0005657a       ?d3dx_png_error_fn@@YAXPAUpng_struct_def@D3DX@@PBD@Z 1005757a f   d3dx8:cd3dximage.obj
 0001:00056585       ?d3dx_png_warning_fn@@YAXPAUpng_struct_def@D3DX@@PBD@Z 10057585 f   d3dx8:cd3dximage.obj
 0001:00052172       ?TF_SetupTriangle@@YAPAEIIH@Z 10053172 f   d3dx8:cd3dxblt.obj
 0001:00053ced       ?F2IBegin@@YAXXZ           10054ced f   d3dx8:cd3dxblt.obj
 0001:00053d10       ?F2I@@YAHM@Z               10054d10 f   d3dx8:cd3dxblt.obj
 0001:00053d1f       ?F2IEnd@@YAXXZ             10054d1f f   d3dx8:cd3dxblt.obj
 0001:0005494c       ?LF_SetupLinear@@YAPAEIIH@Z 1005594c f   d3dx8:cd3dxblt.obj
 0001:0003191a       ?FI_Find@@YAPAUFormatInfo@@W4_D3DFORMAT@@@Z 1003291a f   d3dx8:d3dx8tex.obj
 0001:0003193e       ?FI_Score@@YAKPAUFormatInfo@@0@Z 1003293e f   d3dx8:d3dx8tex.obj
 0001:000319be       ?CheckTextureRequirements@@YAJPAUIDirect3DDevice8@@PAI111KPAW4_D3DFORMAT@@W4_D3DPOOL@@I@Z 100329be f   d3dx8:d3dx8tex.obj
 0001:0002b148       ?WithinEpsilon@@YAHMM@Z    1002c148 f   d3dx8:d3dxmath.obj
 0001:0002b175       ?sincosf@@YAXMPAM0@Z       1002c175 f   d3dx8:d3dxmath.obj
 0001:0006e7e4       ?ArrayUnwindFilter@@YAHPAU_EXCEPTION_POINTERS@@@Z 1006f7e4 f   MSVCRT:ehvecdtr.obj
